(dp1
S'features_dict'
p2
(dp3
S'AlOmn_0'
p4
I0
sS'kulofap_1'
p5
I8
sS'musotadiyr_1'
p6
I11
sS'mhnQyh_0'
p7
I12
sS'naZ~am_1'
p8
I13
sS'ITlAq_0'
p9
I18
sS'HAfiz_1'
p10
I19
sS'{iqotaraH_1'
p11
I21
sS'maHab~ap_1'
p12
I22
sS'OcqAC_0'
p13
I23
sS'wbAlOHrY_0'
p14
I24
sS'nusoxap_1'
p15
I25
sS'rAqid_1'
p16
I26
sS'hubuwT_1'
p17
I28
sS'wAlOHd_0'
p18
I29
sS'kiyluwmitr_1'
p19
I30
sS'AlOkvr_0'
p20
I31
sS'fawoqiy~_1'
p21
I32
sS'rAqab_1'
p22
I33
sS'baToriyarok_1'
p23
I7162
sS'rsAQl_0'
p24
I3855
sS'AlOHyAC_0'
p25
I36
sS'OElY_0'
p26
I37
sS'lugap_1'
p27
I38
sS'tOvr_0'
p28
I39
sS'maTolaE_1'
p29
I40
sS'wcyfArdnAdzh_0'
p30
I41
sS'muTaw~al_1'
p31
I42
sS'Zan~-u_1'
p32
I44
sS'hdwC_0'
p33
I46
sS'taSofiyap_1'
p34
I47
sS'OwrlAndw_0'
p35
I48
sS'lam~ap_1'
p36
I49
sS'ObAbA_0'
p37
I50
sS'maSiyr_1'
p38
I51
sS'mutaEah~id_1'
p39
I52
sS'Eajuwzap_1'
p40
I249
sS'qabor_1'
p41
I54
sS'nchd_0'
p42
I250
sS'tafAqum_1'
p43
I57
sS'crwT_0'
p44
I58
sS'marosiyliyA_1'
p45
I59
sS'{inofarad_1'
p46
I61
sS'muviyr_1'
p47
I63
sS'wOwgndA_0'
p48
I318
sS'mljO_0'
p49
I65
sS'{isotaqoTab_1'
p50
I66
sS'cEbyp_0'
p51
I67
sS'dAr_1'
p52
I68
sS'nAjim_1'
p53
I69
sS'Haram-iu_1'
p54
I70
sS'wObrzhA_0'
p55
I71
sS'IsmAEyl_0'
p56
I72
sS'tijAriy~_1'
p57
I73
sS'fidoyap_1'
p58
I74
sS'{isotafAd_1'
p59
I77
sS'mutafAqim_1'
p60
I78
sS'lOnhA_0'
p61
I79
sS'nAriy~_1'
p62
I80
sS'wVkrt_0'
p63
I81
sS'kasab-i_1'
p64
I82
sS'waqof_1'
p65
I5132
sS'tncA_0'
p66
I84
sS'wOxyrA_0'
p67
I85
sS'jihAd_1'
p68
I86
sS'qal~aS_1'
p69
I87
sS'Has~As_1'
p70
I88
sS'yuwriy_1'
p71
I89
sS'ckl_0'
p72
I90
sS'najaH-a_1'
p73
I3209
sS'AlOSwAt_0'
p74
I91
sS'{isotiqorAr_1'
p75
I92
sS'tOwAr_0'
p76
I93
sS'mSAQr_0'
p77
I94
sS'wcrqhA_0'
p78
I95
sS'AlrQysp_0'
p79
I96
sS'crkp_0'
p80
I97
sS'{isotaxodam_1'
p81
I98
sS'jilobAb_1'
p82
I2614
sS'jAn_1'
p83
I100
sS'fayoSaliy~_1'
p84
I101
sS'tajodiyd_1'
p85
I102
sS'wAlIsrAQylyyn_0'
p86
I103
sS'AllAjQyn_0'
p87
I1297
sS'1990_0'
p88
I106
sS'fiydoriyn_1'
p89
I107
sS'muqAranap_1'
p90
I108
sS'AlOwnyskw_0'
p91
I109
sS'bdO_0'
p92
I110
sS'bAlwlAC_0'
p93
I111
sS'OVY_0'
p94
I112
sS'lOTfAl_0'
p95
I113
sS'taEah~ad_1'
p96
I114
sS'dAEim_1'
p97
I115
sS'IlyEAzr_0'
p98
I116
sS'>axofaY_1'
p99
I117
sS'wujuwb_1'
p100
I119
sS'AlOfryqyp_0'
p101
I120
sS'muqiym_1'
p102
I121
sS'AlOwAmr_0'
p103
I124
sS'kuw~ap_1'
p104
I125
sS'OsAbyE_0'
p105
I126
sS'{iHotijAj_1'
p106
I127
sS'AltcjyE_0'
p107
I128
sS'wbAlcrEyp_0'
p108
I129
sS'bOnAm_0'
p109
I130
sS'{iEotaraf_1'
p110
I131
sS'siyAtil_1'
p111
I132
sS'{inofiEAliy~_1'
p112
I133
sS'TugoyAn_1'
p113
I134
sS'{inotiqAl_1'
p114
I135
sS'AlOsbwEyn_0'
p115
I136
sS'xi'
p116
I5
sS'qaloEap_1'
p117
I137
sS'liybiy~_1'
p118
I138
sS'xn'
p119
I122
sS'riymuwn_1'
p120
I139
sS'{inofijAr_1'
p121
I3873
sS'Hadiyqap_1'
p122
I141
sS'1999_0'
p123
I142
sS'kOnhA_0'
p124
I143
sS'wOwckt_0'
p125
I144
sS'Saw~at_1'
p126
I145
sS'faSal-i_1'
p127
I837
sS'AlISlAHAt_0'
p128
I147
sS'AntcrwA_0'
p129
I148
sS'Oyn_0'
p130
I149
sS'{isotisolAm_1'
p131
I150
sS'AlIslAmyyn_0'
p132
I151
sS'20_00_0'
p133
I446
sS'SAfaH_1'
p134
I152
sS'Osyr_0'
p135
I153
sS'taHosiyn_1'
p136
I154
sS'47_0'
p137
I155
sS'mutawas~iT_1'
p138
I156
sS'kAbotin_1'
p139
I157
sS'qatiyl_1'
p140
I158
sS'wAlOTfAl_0'
p141
I159
sS'qal~al_1'
p142
I160
sS'laf~ap_1'
p143
I161
sS'mQAt_0'
p144
I162
sS'ycr_0'
p145
I163
sS'marosuwm_1'
p146
I164
sS'marosuwm_2'
p147
I165
sS'OmAmh_0'
p148
I166
sS'{ilotaqaY_1'
p149
I167
sS'AlcAHnAt_0'
p150
I168
sS'wyxcY_0'
p151
I169
sS'Hukom_1'
p152
I170
sS'tawaj~ab_1'
p153
I171
sS'tcyny_0'
p154
I971
sS'OgsTs_0'
p155
I173
sS'jiy_1'
p156
I174
sS'valAv_1'
p157
I175
sS'95_0'
p158
I176
sS'cbAT_0'
p159
I177
sS'ruwnAloduw_1'
p160
I178
sS'niyl_2'
p161
I179
sS'qabiyl_1'
p162
I6729
sS'wOElnwA_0'
p163
I180
sS'taroHiyl_1'
p164
I181
sS'{isotiholAk_1'
p165
I182
sS'OcrH_0'
p166
I183
sS'han~a>_1'
p167
I184
sS'>aqar~_1'
p168
I185
sS'muloSaq_1'
p169
I186
sS'qasowap_1'
p170
I187
sS'{izodihAr_1'
p171
I188
sS'{ikotasab_1'
p172
I189
sS'ycArk_0'
p173
I6438
sS'mAris_1'
p174
I191
sS'sad~_1'
p175
I192
sS'jid~iy~_1'
p176
I193
sS'ISAbth_0'
p177
I194
sS'muhAjir_1'
p178
I195
sS'>aHAl_1'
p179
I196
sS'wAjah_1'
p180
I197
sS'bakorap_1'
p181
I198
sS'AlktAQby_0'
p182
I199
sS'{isotamaE_1'
p183
I200
sS'suloTap_1'
p184
I201
sS'AldAQrp_0'
p185
I1126
sS'Mdm_0'
p186
I203
sS'yaHoyaY_1'
p187
I204
sS'wOSyb_0'
p188
I205
sS'bayoruwt_1'
p189
I206
sS'gAnim_1'
p190
I207
sS'wycml_0'
p191
I208
sS'kav~af_1'
p192
I209
sS'taqal~ub_1'
p193
I210
sS'naqiyb_1'
p194
I211
sS'lOsbAb_0'
p195
I212
sS'OfryqyA_0'
p196
I213
sS'xAm_1'
p197
I214
sS'sAnA_1'
p198
I215
sS'Vkrth_0'
p199
I216
sS'xamiys_2'
p200
I217
sS'AlIrhAbyyn_0'
p201
I218
sS'AlrQys_0'
p202
I219
sS'mDACp_0'
p203
I220
sS'OjnbyA_0'
p204
I1312
sS'IsHq_0'
p205
I6441
sS'wajoh_1'
p206
I223
sS'InjylA_0'
p207
I224
sS'Owl_0'
p208
I225
sS'>awoqad_1'
p209
I226
sS'baEiyd_1'
p210
I227
sS'tagoyiyb_1'
p211
I228
sS'crkAC_0'
p212
I229
sS'raboE_1'
p213
I230
sS'cEArAt_0'
p214
I231
sS'wOrbyl_0'
p215
I232
sS'qiymap_1'
p216
I233
sS'AlOnbwb_0'
p217
I234
sS'Alcrfyn_0'
p218
I235
sS'Alcrqyp_0'
p219
I236
sS'mumAvil_1'
p220
I237
sS'AlAstdEAC_0'
p221
I238
sS'gArib_1'
p222
I2632
sS'300_0'
p223
I240
sS'{iHotAj_1'
p224
I241
sS'bi_1'
p225
I242
sS'tadoriybiy~_1'
p226
I244
sS'kilA_1'
p227
I7053
sS'nfVt_0'
p228
I1315
sS'kalob_1'
p229
I246
sS'Almctbh_0'
p230
I247
sS'taSAEud_1'
p231
I1317
sS'lOmyn_0'
p232
I53
sS'54_0'
p233
I55
sS'Ofryqy_0'
p234
I251
sS'muwdiE_2'
p235
I252
sS'lAdin_1'
p236
I253
sS'ramoziy_1'
p237
I254
sS'{isotijowAb_1'
p238
I255
sS'mAliy_1'
p239
I257
sS'OwlAd_0'
p240
I258
sS'{igotAl_1'
p241
I259
sS'Oshm_0'
p242
I260
sS'>anotaj_1'
p243
I261
sS'tawoDiyH_1'
p244
I262
sS'tanAfas_1'
p245
I263
sS'mutawas~iTiy~_1'
p246
I264
sS'AlOdAC_0'
p247
I265
sS'AlzEmAC_0'
p248
I266
sS'wtEVyb_0'
p249
I267
sS'>afoDaY_1'
p250
I268
sS'TaHiyn_1'
p251
I269
sS'86_0'
p252
I270
sS'pron_dem'
p253
I5049
sS'AlVrAE_0'
p254
I271
sS'Ordnyp_0'
p255
I272
sS'muhiyn_1'
p256
I273
sS'AlVAtyp_0'
p257
I274
sS'OsshA_0'
p258
I275
sS'taSoEiydiy~_1'
p259
I276
sS'wAlIsrAQylywn_0'
p260
I277
sS'bAlmsWwlyp_0'
p261
I278
sS'wajab-i_1'
p262
I279
sS'part_fut'
p263
I5031
sS'HAn_1'
p264
I280
sS'wAlrhAQn_0'
p265
I281
sS'DagoT_1'
p266
I282
sS'AljzAQry_0'
p267
I283
sS'AlmcAryE_0'
p268
I284
sS'jah~az_1'
p269
I285
sS'wsybdO_0'
p270
I286
sS'bdOwA_0'
p271
I287
sS'masiyrap_1'
p272
I288
sS'fOwDH_0'
p273
I289
sS'Haj~_1'
p274
I290
sS'tAliy_1'
p275
I291
sS'whkVA_0'
p276
I2641
sS'tawASul_1'
p277
I293
sS'tamas~uk_1'
p278
I294
sS'OETAhA_0'
p279
I295
sS'noun_quant'
p280
I7054
sS'Siyt_1'
p281
I297
sS'ycn_0'
p282
I298
sS'tAbiE_1'
p283
I299
sS'AlEmdAC_0'
p284
I300
sS'ckAwY_0'
p285
I301
sS'kAmirA_1'
p286
I302
sS'Eab~ar_1'
p287
I303
sS'tcylsy_0'
p288
I304
sS'muhotam~_1'
p289
I305
sS'raSiyd_1'
p290
I306
sS'AlImkAn_0'
p291
I307
sS'gaDab_1'
p292
I308
sS'masoraH_1'
p293
I309
sS'llOsbAb_0'
p294
I310
sS'AlfAQzyn_0'
p295
I311
sS'AlIyrlndy_0'
p296
I312
sS'lAstkcAf_0'
p297
I3686
sS'viqap_1'
p298
I314
sS'Hamoduwn_1'
p299
I315
sS'HiwAr_1'
p300
I316
sS'AnthAC_0'
p301
I317
sS'muEaT~al_1'
p302
I64
sS'wbOn_0'
p303
I2648
sS'fliyHAn_1'
p304
I320
sS'AlOsAsyyn_0'
p305
I321
sS'bAstvnAC_0'
p306
I322
sS'mWcrAt_0'
p307
I323
sS'mad~ad_1'
p308
I324
sS'hAtif_1'
p309
I3901
sS'buwl_1'
p310
I6453
sS'OkyAs_0'
p311
I326
sS'cwArE_0'
p312
I327
sS'gAdap_1'
p313
I328
sS'AlbActwny_0'
p314
I329
sS'TAQl_0'
p315
I6544
sS'EaroD_1'
p316
I330
sS'huwlAnodA_1'
p317
I331
sS'HaZ~_1'
p318
I332
sS'muroDiy_1'
p319
I334
sS'bAkistAniy~_1'
p320
I335
sS'OcAE_0'
p321
I5035
sS'brAn~iykuwf_1'
p322
I2042
sS'>aSodar_1'
p323
I338
sS'mhdQh_0'
p324
I339
sS'Sador_1'
p325
I340
sS'marotabap_1'
p326
I341
sS'AlwfAC_0'
p327
I342
sS'wIETAC_0'
p328
I343
sS'rasomiy~_1'
p329
I344
sS'AlcwArE_0'
p330
I345
sS'mirofaq_1'
p331
I346
sS'jwAnotanAmuw_1'
p332
I1331
sS'ltckyl_0'
p333
I348
sS'milAHiy~_1'
p334
I349
sS'wASal_1'
p335
I350
sS'yamiyn_1'
p336
I351
sS'muwsiE_1'
p337
I352
sS'miSodAqiy~ap_1'
p338
I2182
sS'yWxV_0'
p339
I354
sS'baTal_1'
p340
I355
sS'qVyfp_0'
p341
I356
sS'snWssh_0'
p342
I357
sS'AlmtwHc_0'
p343
I358
sS'TanoTAwiy~_2'
p344
I359
sS'taTaw~ar_1'
p345
I360
sS'nisobap_2'
p346
I7438
sS'InkltrA_0'
p347
I361
sS'ObEd_0'
p348
I362
sS'AlOsbAb_0'
p349
I363
sS'wlhVA_0'
p350
I364
sS'IqrAr_0'
p351
I365
sS'bAlnsAC_0'
p352
I366
sS'waqaE-a_1'
p353
I6462
sS'My_0'
p354
I368
sS'jurom_1'
p355
I2302
sS'31_0'
p356
I370
sS'cAhdwA_0'
p357
I371
sS'mutabAriy_1'
p358
I2312
sS'kAlMbAr_0'
p359
I373
sS'siyAdap_1'
p360
I374
sS'xaDaE-a_1'
p361
I375
sS'mubar~ir_1'
p362
I376
sS'wAlTAQfyp_0'
p363
I378
sS'AlOrqAm_0'
p364
I379
sS'badA-u_1'
p365
I380
sS'AlOEmAl_0'
p366
I381
sS'{ixotazan_1'
p367
I382
sS'AlIndwnysy_0'
p368
I383
sS'lAEib_1'
p369
I384
sS'buEod_1'
p370
I385
sS'tWhlh_0'
p371
I7592
sS'AlmWhlp_0'
p372
I386
sS'taEAwuniy~_1'
p373
I387
sS'dayoriy~_1'
p374
I388
sS'qaTariy~_1'
p375
I389
sS'muHal~il_1'
p376
I256
sS'39_0'
p377
I391
sS'OrmynyA_0'
p378
I392
sS'wAlsjnAC_0'
p379
I393
sS'tahoni}ap_1'
p380
I394
sS'Onxl_0'
p381
I395
sS'hVyn_0'
p382
I396
sS'naSoriy_1'
p383
I397
sS'mnfV_0'
p384
I398
sS'OnTwn_0'
p385
I399
sS'btEbQp_0'
p386
I400
sS'OErb_0'
p387
I401
sS'wOydnAh_0'
p388
I402
sS'OqArbhm_0'
p389
I403
sS'Dar~-u_1'
p390
I404
sS'36_0'
p391
I405
sS'OEdAC_0'
p392
I1342
sS'wAlActrAEyp_0'
p393
I2487
sS'wAlcrAkp_0'
p394
I408
sS'wIblAg_0'
p395
I409
sS'OndryAs_0'
p396
I410
sS'Olfyn_0'
p397
I411
sS'sOmrs_0'
p398
I412
sS'xaSoxaSap_1'
p399
I414
sS'167_0'
p400
I415
sS'{imotihAn_1'
p401
I416
sS'OrbEp_0'
p402
I417
sS'Alckr_0'
p403
I418
sS'wEAQlp_0'
p404
I419
sS'OcElt_0'
p405
I420
sS'wIElAn_0'
p406
I421
sS'tarak-u_1'
p407
I422
sS'faroE_1'
p408
I424
sS'Ofrj_0'
p409
I425
sS'Alcrbyny_0'
p410
I426
sS'Odbyp_0'
p411
I427
sS'yAbAniy~_1'
p412
I428
sS'qawol_1'
p413
I429
sS'munotaj_1'
p414
I430
sS'muEal~aq_1'
p415
I431
sS'muzaw~ad_1'
p416
I432
sS'fAq-u_1'
p417
I433
sS'OstrAlyA_0'
p418
I434
sS'nWkd_0'
p419
I435
sS'taEar~uj_1'
p420
I436
sS'MlyAt_0'
p421
I437
sS'cklh_0'
p422
I438
sS'AlsfrAC_0'
p423
I439
sS'rad~_1'
p424
I440
sS'IDrAb_0'
p425
I441
sS'fAEiliy~ap_1'
p426
I442
sS'baHobuwH_1'
p427
I443
sS'faranosA_1'
p428
I444
sS'taHoliyliy~_1'
p429
I445
sS'yckr_0'
p430
I447
sS'dafaE-a_1'
p431
I448
sS'law_1'
p432
I449
sS'wOEtqd_0'
p433
I451
sS'miyqAt_1'
p434
I452
sS'sWAlh_0'
p435
I453
sS'Turobiyd_1'
p436
I454
sS'ycjE_0'
p437
I455
sS'bruwnAy_1'
p438
I456
sS'muwAjahap_1'
p439
I457
sS'HayAp_1'
p440
I458
sS'wasoT_1'
p441
I459
sS'Eumuwm_1'
p442
I460
sS'tnVr_0'
p443
I461
sS'hcAm_0'
p444
I462
sS'Ondry_0'
p445
I463
sS'cdydy_0'
p446
I464
sS'rub~amA_1'
p447
I465
sS'taEad~ad_1'
p448
I467
sS'kuwluwmobw_1'
p449
I468
sS'lamas-ui_1'
p450
I6120
sS'muwnodiyAl_1'
p451
I469
sS'dalAlap_1'
p452
I470
sS'dirAsap_1'
p453
I471
sS'bIcrAf_0'
p454
I472
sS'ttxV_0'
p455
I473
sS'>aforag_1'
p456
I474
sS'wAlOxyrp_0'
p457
I476
sS'llOmyn_0'
p458
I5932
sS'AlrAQdp_0'
p459
I477
sS'jid~ap_2'
p460
I478
sS'jid~ap_1'
p461
I479
sS'Hamod_1'
p462
I480
sS'maToluwb_1'
p463
I481
sS'Tib~iy~_1'
p464
I482
sS'sak~an_1'
p465
I483
sS'crkty_0'
p466
I484
sS'AlIqAmp_0'
p467
I485
sS'sabiyl_1'
p468
I3929
sS'wOsEf_0'
p469
I487
sS'qrACp_0'
p470
I488
sS'llcrAkp_0'
p471
I489
sS'HAris_1'
p472
I490
sS'xAtimiy~_1'
p473
I491
sS'Eiyd_1'
p474
I492
sS'26_0'
p475
I493
sS'maton_1'
p476
I494
sS'majomuwE_1'
p477
I495
sS'OdrAj_0'
p478
I496
sS'Sagiyr_1'
p479
I497
sS'buTuwlap_1'
p480
I498
sS'dObt_0'
p481
I499
sS'IyjAbyp_0'
p482
I500
sS'waD~aH_1'
p483
I501
sS'muEAwin_1'
p484
I502
sS'sinAtuwr_1'
p485
I503
sS'{inofiEAl_1'
p486
I504
sS'EibAdap_1'
p487
I505
sS'OsbwEyn_0'
p488
I506
sS'29_0'
p489
I507
sS'76_0'
p490
I508
sS'kliybAnuwf_1'
p491
I509
sS'IyfAnysyfytc_0'
p492
I510
sS'ObydjAn_0'
p493
I511
sS'tasAwaY_1'
p494
I7591
sS'qaroD_1'
p495
I514
sS'xamos_1'
p496
I515
sS'kuwnoduwliyzA_1'
p497
I516
sS'OSl_0'
p498
I517
sS'wOqAm_0'
p499
I6493
sS'jamiyE_1'
p500
I519
sS'AlOrbAE_0'
p501
I520
sS'jAmiEap_1'
p502
I521
sS'wADiE_1'
p503
I522
sS'bIqrAr_0'
p504
I523
sS'vAnawiy~_1'
p505
I524
sS'dAQmA_0'
p506
I525
sS'fOjAb_0'
p507
I526
sS'AlODEf_0'
p508
I527
sS'ttOlf_0'
p509
I528
sS'takay~af_1'
p510
I529
sS'AlmbdQy_0'
p511
I530
sS'wiyloyAm_1'
p512
I531
sS'OjAwyd_0'
p513
I533
sS'cnAydr_0'
p514
I534
sS'tanoZiym_1'
p515
I535
sS'qAr~_1'
p516
I536
sS'ISlAH_0'
p517
I537
sS'ImkAnyp_0'
p518
I538
sS'AlOwlyAn_0'
p519
I539
sS'mawoquwf_1'
p520
I540
sS'TArQ_0'
p521
I541
sS'kuwayot_1'
p522
I542
sS'taqiy~_1'
p523
I543
sS'Eubuwr_1'
p524
I5205
sS'bris_1'
p525
I545
sS'ruwbirotuw_1'
p526
I546
sS'AlOwtwbys_0'
p527
I547
sS'taHam~al_1'
p528
I548
sS'zAm-u_1'
p529
I549
sS'salAmap_1'
p530
I550
sS'bOsmAC_0'
p531
I3944
sS'muTolaq_1'
p532
I553
sS'najA-u_1'
p533
I554
sS'AlIhdAr_0'
p534
I555
sS'taSowiyt_1'
p535
I556
sS'Eid~ap_1'
p536
I557
sS'Ojlt_0'
p537
I558
sS'maTobax_1'
p538
I559
sS'yuw_1'
p539
I560
sS'rAEiy_1'
p540
I561
sS'AlIjmAly_0'
p541
I562
sS'yuw_2'
p542
I563
sS'Odt_0'
p543
I564
sS'AlAstvnAQyp_0'
p544
I565
sS'jumohuwr_1'
p545
I566
sS'rAkib_1'
p546
I567
sS'wIyhAb_0'
p547
I568
sS'murotakib_1'
p548
I569
sS'waEaY-i_1'
p549
I570
sS'kAb_1'
p550
I571
sS'vAr-u_1'
p551
I572
sS'EAliy_1'
p552
I573
sS'IjrAC_0'
p553
I574
sS'buwruwsiyA_1'
p554
I575
sS'qudos_1'
p555
I576
sS'muEotabar_1'
p556
I577
sS'jalAl_1'
p557
I578
sS'cnthA_0'
p558
I579
sS'Alcrq_0'
p559
I580
sS'AlIslAmyp_0'
p560
I581
sS'>aTolaq_1'
p561
I582
sS'qunoSul_1'
p562
I583
sS'miynA_1'
p563
I4619
sS'83_1_0'
p564
I3748
sS'wOcjArA_0'
p565
I585
sS'salofiyt_1'
p566
I586
sS'Hafolap_1'
p567
I587
sS'{isotaxolaS_1'
p568
I588
sS'Itnyp_0'
p569
I589
sS'EAliq_1'
p570
I590
sS'suloTAn_1'
p571
I3949
sS'AlObTAl_0'
p572
I592
sS'AlcArE_0'
p573
I593
sS'lAEtdAC_0'
p574
I594
sS'IjmAly_0'
p575
I595
sS'kAyzirsoluwtirn_1'
p576
I596
sS'qAr~ap_1'
p577
I597
sS'OnhA_0'
p578
I598
sS'zamAlik_1'
p579
I599
sS'muTAlabap_1'
p580
I600
sS'fiyliyb~iyniy~_1'
p581
I601
sS'huwiy~ap_1'
p582
I602
sS'wAlOwl_0'
p583
I6516
sS'miylir_1'
p584
I603
sS'sibotamobir_1'
p585
I604
sS'kabosuwl_1'
p586
I605
sS'>aboEad_1'
p587
I606
sS'qad~am_1'
p588
I607
sS'OETyA_0'
p589
I608
sS'muEam~ar_1'
p590
I609
sS'TamaE_1'
p591
I610
sS'tawaq~aE_1'
p592
I611
sS'bMxr_0'
p593
I612
sS'xar~ab_1'
p594
I613
sS'TAlamA_2'
p595
I614
sS'flAdiymiyr_1'
p596
I6519
sS'{iHotajaz_1'
p597
I616
sS'Hay~iz_1'
p598
I617
sS'naqAhap_1'
p599
I5215
sS'nZrAQh_0'
p600
I619
sS'muwaq~aE_1'
p601
I6521
sS'muxotalaf_1'
p602
I622
sS'muEolin_1'
p603
I623
sS'sOndY_0'
p604
I624
sS'mtfAQlwn_0'
p605
I7229
sS'wikAlap_1'
p606
I625
sS'OSAbh_0'
p607
I626
sS'muEaw~aD_1'
p608
I627
sS'400_0'
p609
I628
sS'jariydap_1'
p610
I629
sS'1975_0'
p611
I630
sS'qAtal_1'
p612
I631
sS'{imotiyAz_1'
p613
I632
sS'AntcAr_0'
p614
I633
sS'taxoSiyS_1'
p615
I634
sS'{ilotaHaY_1'
p616
I635
sS'Eakaf-i_1'
p617
I636
sS'Sulob_1'
p618
I637
sS'{iDoTalaE_1'
p619
I638
sS'maval_1'
p620
I639
sS'OslwbA_0'
p621
I640
sS'Eurobuwn_1'
p622
I641
sS'kiyfin_1'
p623
I642
sS'llIlgAC_0'
p624
I643
sS'garaf-i_1'
p625
I644
sS'bbTC_0'
p626
I645
sS'{isotabAn_1'
p627
I6525
sS'{isotawojab_1'
p628
I647
sS'taqoniy~_1'
p629
I648
sS'taqoniy~_2'
p630
I649
sS'muruwr_1'
p631
I650
sS'AlOlmAnyp_0'
p632
I651
sS'musam~aY_1'
p633
I652
sS'maHomuwd_1'
p634
I653
sS'maham~ap_1'
p635
I654
sS'lcrkp_0'
p636
I655
sS'__0'
p637
I6398
sS'Habokap_1'
p638
I656
sS'tcgyl_0'
p639
I657
sS'tazAman_1'
p640
I658
sS'68_0'
p641
I659
sS'tawoSiyl_1'
p642
I660
sS'IstAd_0'
p643
I661
sS'naHiyb_1'
p644
I662
sS'sObqY_0'
p645
I663
sS'IsrAQylywn_0'
p646
I665
sS'wTAQfy_0'
p647
I5219
sS'gADib_1'
p648
I666
sS'punc'
p649
I2375
sS'IjmAlA_0'
p650
I667
sS'SiyAm_1'
p651
I668
sS'{irotikAb_1'
p652
I669
sS'sAmir_2'
p653
I670
sS'daxal-u_1'
p654
I671
sS'taqodiym_1'
p655
I672
sS'ruwHiy~_1'
p656
I6527
sS'AltrcH_0'
p657
I674
sS'cqyqp_0'
p658
I675
sS'maHokuwm_1'
p659
I676
sS'{inofitAH_1'
p660
I677
sS'llIrhAb_0'
p661
I1381
sS'kriysotyAn_1'
p662
I679
sS'buwr_1'
p663
I680
sS'Eay~an_1'
p664
I681
sS'Eanobar_1'
p665
I682
sS'SiH~ap_1'
p666
I683
sS'cxS_0'
p667
I684
sS'wAlOwrwbyp_0'
p668
I685
sS'llrQAsp_0'
p669
I686
sS'muSaw~ar_1'
p670
I687
sS'lOdAC_0'
p671
I688
sS'wyOty_0'
p672
I689
sS'{isotamar~_1'
p673
I5578
sS'{iHotafaZ_1'
p674
I690
sS'wIEAdp_0'
p675
I691
sS'AbtdAC_0'
p676
I692
sS'SafowAn_1'
p677
I694
sS'bOy_0'
p678
I695
sS'haz~_1'
p679
I696
sS'xuwluw_1'
p680
I697
sS'qiyAdiy~_2'
p681
I698
sS'qiyAdiy~_1'
p682
I699
sS'48_0'
p683
I700
sS'mak~uwk_1'
p684
I701
sS'bhVh_0'
p685
I702
sS'Owqf_0'
p686
I703
sS'OyA_0'
p687
I704
sS'wifoqa_1'
p688
I705
sS'AlgAQbyn_0'
p689
I706
sS'IdAry_0'
p690
I707
sS'wAlIrhAb_0'
p691
I708
sS'Sayod_1'
p692
I709
sS'lAhiy_1'
p693
I710
sS'AlcryT_0'
p694
I711
sS'xilAfap_1'
p695
I712
sS'buwlanodA_1'
p696
I713
sS'HAmil_1'
p697
I714
sS'biTAqap_1'
p698
I715
sS'masiyHiy~_1'
p699
I716
sS'yA_1'
p700
I717
sS'wIqAmp_0'
p701
I719
sS'xitAmiy~_1'
p702
I720
sS'dal~-u_1'
p703
I721
sS'EuDowiy~ap_1'
p704
I722
sS'naZiyr_1'
p705
I4322
sS'hayovam_1'
p706
I724
sS'raqaS-u_1'
p707
I725
sS'zAQr_0'
p708
I726
sS'Hayovu_1'
p709
I727
sS'gAriq_1'
p710
I4330
sS'Ohmyp_0'
p711
I729
sS'qalob_3'
p712
I3968
sS'fAQzA_0'
p713
I731
sS'fAdiH_1'
p714
I4356
sS'tAlobuwt_1'
p715
I733
sS'InsAnyp_0'
p716
I4369
sS'taSowiyr_1'
p717
I735
sS'muEam~aq_1'
p718
I736
sS'(_0'
p719
I3971
sS'AlcycAnyp_0'
p720
I4389
sS'wOwkrAnyA_0'
p721
I739
sS'Ohlyp_0'
p722
I740
sS'wcbAn_0'
p723
I741
sS'lnhAQyAt_0'
p724
I742
sS'mulAHaZ_1'
p725
I743
sS'AlcrE_0'
p726
I744
sS'OmAmhm_0'
p727
I745
sS'tafaD~al_1'
p728
I4434
sS'muxaDoram_1'
p729
I747
sS'AlVkrY_0'
p730
I748
sS'jAhiz_1'
p731
I749
sS'Tabaqap_1'
p732
I750
sS'taEobiyr_1'
p733
I751
sS'Obrq_0'
p734
I752
sS'TibAEap_1'
p735
I753
sS'llcgb_0'
p736
I4487
sS'2004_0'
p737
I755
sS'{ibotikAr_1'
p738
I756
sS'IjhADA_0'
p739
I757
sS'buruwd_1'
p740
I2408
sS'munad~id_1'
p741
I759
sS'ITlAqh_0'
p742
I760
sS'rabiyE_1'
p743
I761
sS'>arogaY_1'
p744
I762
sS'luwrAn_1'
p745
I763
sS'EAniy_1'
p746
I764
sS'Tifol_1'
p747
I765
sS'waHoy_1'
p748
I766
sS'daEom_1'
p749
I767
sS'daqiyq_1'
p750
I769
sS'lAyok_1'
p751
I770
sS'wAzaY-i_1'
p752
I771
sS'AlmWtmr_0'
p753
I772
sS'kuwkA_1'
p754
I773
sS'kurap_1'
p755
I774
sS'wOlksndr_0'
p756
I775
sS'nasab-ui_1'
p757
I776
sS'sir~iy~_1'
p758
I777
sS'xuDorap_1'
p759
I778
sS'munAsib_1'
p760
I779
sS'Eiqod_1'
p761
I780
sS'tiylostruwm_1'
p762
I781
sS'mnfVy_0'
p763
I782
sS'muHan~ak_1'
p764
I783
sS'muwsiyqaY_1'
p765
I784
sS'kiyiyf_1'
p766
I785
sS'mutawAfir_1'
p767
I786
sS'thyQp_0'
p768
I787
sS'katam-u_1'
p769
I788
sS'samak_1'
p770
I789
sS'IyfAd_0'
p771
I790
sS'AlnAQbAn_0'
p772
I5081
sS'najow_1'
p773
I792
sS'makotuwb_1'
p774
I793
sS'mArok_1'
p775
I794
sS'{iqotiSAd_1'
p776
I795
sS'AlOswO_0'
p777
I796
sS'rafaD-u_1'
p778
I797
sS'>aTAH_1'
p779
I798
sS'IstrAtyjyA_0'
p780
I799
sS'taloziym_1'
p781
I800
sS'cAhdt_0'
p782
I801
sS'fiyuwrinotiynA_1'
p783
I802
sS'bAkuw_1'
p784
I803
sS'maEuwnap_1'
p785
I804
sS'Oms_0'
p786
I805
sS'nad~-i_1'
p787
I807
sS'17_0'
p788
I808
sS'mut~abaE_1'
p789
I809
sS'taEokiyr_1'
p790
I810
sS'qAQlp_0'
p791
I811
sS'AlmHAVyp_0'
p792
I812
sS'Ifryqyyn_0'
p793
I813
sS'xiyAnap_1'
p794
I814
sS'cAhdA_0'
p795
I815
sS'TAQrp_0'
p796
I816
sS'EazA-u_1'
p797
I817
sS'IxwAnnA_0'
p798
I818
sS'AlcAhd_0'
p799
I819
sS'wAlESAQr_0'
p800
I820
sS'{inoHirAf_1'
p801
I821
sS'OnTwnyw_0'
p802
I822
sS'cfAQh_0'
p803
I2406
sS'AlmWssAt_0'
p804
I823
sS'murAjaEap_1'
p805
I824
sS'yOxV_0'
p806
I825
sS'IdrAk_0'
p807
I826
sS'tuwmAs_1'
p808
I3981
sS'AlcAml_0'
p809
I2729
sS'taHad~av_1'
p810
I829
sS'AlOmyrp_0'
p811
I830
sS'Hukuwmiy~_1'
p812
I831
sS'jamAEap_1'
p813
I832
sS'Damin-a_1'
p814
I833
sS'18_0'
p815
I835
sS'wAlid_1'
p816
I836
sS'wckr_0'
p817
I146
sS'tasoriyb_1'
p818
I838
sS'tawosiyE_1'
p819
I839
sS'klAyotuwn_1'
p820
I840
sS'{inodilAE_1'
p821
I841
sS'dawarAn_1'
p822
I842
sS'Eamaliy~_1'
p823
I844
sS'Sim~ap_1'
p824
I845
sS'sabaq-iu_1'
p825
I846
sS'lIntAj_0'
p826
I847
sS'tuwrA_1'
p827
I848
sS'mawoj_1'
p828
I849
sS'AlmcArkyn_0'
p829
I851
sS'tbVl_0'
p830
I852
sS'Hamolap_1'
p831
I853
sS'bar~_1'
p832
I854
sS'AlHcrp_0'
p833
I3250
sS'Osfr_0'
p834
I855
sS'tcglAn_0'
p835
I856
sS'laEib-a_1'
p836
I857
sS'AlcEryp_0'
p837
I858
sS'varowat_1'
p838
I859
sS'part_neg'
p839
I1973
sS'AlOmnyp_0'
p840
I860
sS'SinAEiy~_1'
p841
I861
sS'baEov_1'
p842
I862
sS'baEov_2'
p843
I863
sS'{ikotafaY_1'
p844
I864
sS'mud~ap_1'
p845
I865
sS'{inosiHAb_1'
p846
I866
sS'AltnfyVy_0'
p847
I867
sS'tafoEiyl_1'
p848
I868
sS'maEoluwf_2'
p849
I869
sS'mawoDuwE_1'
p850
I3991
sS'Hur~_1'
p851
I871
sS'OwlA_0'
p852
I872
sS'58_0'
p853
I873
sS'{it~iHAdiy~_1'
p854
I874
sS'rajab_1'
p855
I875
sS'Sadar-u_1'
p856
I876
sS'xaraq-iu_1'
p857
I877
sS'2001_0'
p858
I879
sS'dawAm_1'
p859
I880
sS'mubAlagap_1'
p860
I881
sS'IdAryy_0'
p861
I882
sS'AlOmlAk_0'
p862
I883
sS'nAbiE_1'
p863
I884
sS'tOsysh_0'
p864
I885
sS'Hal~_1'
p865
I886
sS'chdAC_0'
p866
I887
sS'HiSAn_1'
p867
I888
sS'wOyn_0'
p868
I889
sS'wAlIElAm_0'
p869
I890
sS'Okvryp_0'
p870
I891
sS'tabar~uE_1'
p871
I2737
sS'{isotiHoqAq_1'
p872
I893
sS'Alcbybp_0'
p873
I894
sS'IbAHyp_0'
p874
I895
sS'dnkTAc_0'
p875
I896
sS'OlmydA_0'
p876
I897
sS'fsOqymk_0'
p877
I898
sS'{isotiqolAl_1'
p878
I899
sS'Vkr_0'
p879
I900
sS'saToH_1'
p880
I901
sS'walad-i_1'
p881
I902
sS'wizArap_1'
p882
I903
sS'bat~Ar_1'
p883
I904
sS'OErAfA_0'
p884
I905
sS'mazoruwE_1'
p885
I906
sS'Omnyp_0'
p886
I907
sS'nihAyap_1'
p887
I908
sS'lIbqAC_0'
p888
I909
sS'ruwdiy_1'
p889
I910
sS'1945_0'
p890
I911
sS'>ajAb_1'
p891
I912
sS'AlObryAC_0'
p892
I913
sS'biron_1'
p893
I914
sS'SAruwxiy~_1'
p894
I915
sS'waEad-i_1'
p895
I916
sS'nAjiy_2'
p896
I917
sS'>ajoraY_1'
p897
I918
sS'OrslAn_0'
p898
I919
sS'daEA-u_1'
p899
I4003
sS'rcq_0'
p900
I921
sS'tasab~ab_1'
p901
I922
sS'wahomiy~_1'
p902
I923
sS'hAwun_1'
p903
I925
sS'dukotuwr_1'
p904
I926
sS'AlOtrAk_0'
p905
I927
sS'zA}ir_1'
p906
I928
sS'rafaE-a_1'
p907
I930
sS'ycArkwA_0'
p908
I931
sS'Ibryl_0'
p909
I932
sS'Dimoniy~_1'
p910
I934
sS'humA_1'
p911
I935
sS'AlxDrAC_0'
p912
I936
sS'lhVh_0'
p913
I937
sS'AlOjhzp_0'
p914
I938
sS'cOny_0'
p915
I939
sS'OnAn_0'
p916
I940
sS'bAlOEmAl_0'
p917
I941
sS'wArid_2'
p918
I942
sS'wArid_1'
p919
I943
sS'wAlcyEp_0'
p920
I944
sS'maTAf_1'
p921
I945
sS'SanoE_1'
p922
I6601
sS'ruwmAniyA_1'
p923
I946
sS'{iHotikAk_1'
p924
I947
sS'Safoqap_1'
p925
I948
sS'Ham~uwd_1'
p926
I949
sS'rawaY-i_1'
p927
I950
sS'nAmiy_1'
p928
I951
sS'HuS~_1'
p929
I952
sS'dar~ab_1'
p930
I953
sS'niysAn_1'
p931
I954
sS'wAlIdArp_0'
p932
I955
sS'wnAQb_0'
p933
I956
sS'{inoEakas_1'
p934
I957
sS'AlmylycyAt_0'
p935
I958
sS'krAtcy_0'
p936
I959
sS'muwaD~iH_1'
p937
I960
sS'Ealawiy~_1'
p938
I961
sS'HisAb_1'
p939
I5871
sS'mutamarokiz_1'
p940
I962
sS'{iEotazam_1'
p941
I963
sS'wstcArk_0'
p942
I964
sS'AlOmyrkywn_0'
p943
I965
sS'AlOwzbkyyn_0'
p944
I966
sS'AlOHyAn_0'
p945
I967
sS'dyfAtc_0'
p946
I968
sS'taHar~ak_1'
p947
I969
sS'Ozmp_0'
p948
I970
sS'manozil_1'
p949
I172
sS'TwAQf_0'
p950
I972
sS'wtEbQp_0'
p951
I973
sS'bEcryn_0'
p952
I974
sS'tckylp_0'
p953
I975
sS'jamAEiy~_1'
p954
I976
sS'nawAp_1'
p955
I977
sS'sit~_1'
p956
I978
sS'sit~_2'
p957
I979
sS'>aqowaY_1'
p958
I980
sS'AlOmyrkytyn_0'
p959
I982
sS'OqsAT_0'
p960
I983
sS'musotawoTin_1'
p961
I984
sS'waliyd_2'
p962
I985
sS'waliyd_1'
p963
I986
sS'kahof_1'
p964
I987
sS'ststcyr_0'
p965
I988
sS'manoE_1'
p966
I989
sS'{iDoTilAE_1'
p967
I990
sS'saqaT-u_1'
p968
I991
sS'zayAn_1'
p969
I992
sS'AlcrEy_0'
p970
I1433
sS'99_0'
p971
I993
sS'wAlIdArAt_0'
p972
I994
sS'AlmQp_0'
p973
I995
sS'EaroDap_1'
p974
I996
sS'mufax~ax_1'
p975
I997
sS'Tariyf_1'
p976
I4013
sS'qarAr_1'
p977
I998
sS'AlInAv_0'
p978
I999
sS'pron_rel'
p979
I1566
sS'zamAn_1'
p980
I1001
sS'bcxS_0'
p981
I1002
sS'AlcxS_0'
p982
I1004
sS'>aTal~_1'
p983
I1005
sS'zaEam-u_1'
p984
I1006
sS'mutahAlik_1'
p985
I1007
sS'IsrAQylyyn_0'
p986
I1008
sS'duwlAr_1'
p987
I1009
sS'cEbAn_0'
p988
I1010
sS'qiT~_1'
p989
I6584
sS'mitor_1'
p990
I1012
sS'AlOHkAm_0'
p991
I1013
sS'jawolAn_1'
p992
I1014
sS'rab~_1'
p993
I1015
sS'rab~_2'
p994
I1016
sS'Alcryk_0'
p995
I2762
sS'rimAyap_1'
p996
I1018
sS'silAH_1'
p997
I1019
sS'wOydh_0'
p998
I1020
sS'wOEln_0'
p999
I1021
sS'92_0'
p1000
I1022
sS'Oqlt_0'
p1001
I4015
sS'sarAyiyfuw_1'
p1002
I1024
sS'c_0'
p1003
I1025
sS'lOHd_0'
p1004
I1026
sS'{ihotam~_1'
p1005
I1027
sS'AlMty_0'
p1006
I1028
sS'Ecyp_0'
p1007
I1029
sS'tAyomz_1'
p1008
I1030
sS'EaSor_1'
p1009
I1031
sS'say~Arap_1'
p1010
I1033
sS'wIcrAf_0'
p1011
I1034
sS'taHAdav_1'
p1012
I6451
sS'425_0'
p1013
I1035
sS'mutaEav~ir_1'
p1014
I1036
sS'jar~Afap_1'
p1015
I1037
sS'gay~ar_1'
p1016
I1038
sS'ragobap_1'
p1017
I4019
sS'siyuwl_1'
p1018
I1040
sS'jamoEiy~_1'
p1019
I1041
sS'VhbwA_0'
p1020
I1042
sS'IklylA_0'
p1021
I1043
sS'mbdO_0'
p1022
I1044
sS'cEbyA_0'
p1023
I1045
sS'kuruwAtiy~_1'
p1024
I1046
sS'ruwmAniy~_1'
p1025
I1047
sS'fiEol_1'
p1026
I1048
sS'AlrQysyyn_0'
p1027
I1049
sS'cnb_0'
p1028
I1050
sS'balaH_1'
p1029
I1051
sS'Otqdm_0'
p1030
I1052
sS'wAlIsrAQyly_0'
p1031
I1054
sS'Obtr_0'
p1032
I1055
sS'cnghAy_0'
p1033
I1056
sS'biyd_1'
p1034
I1057
sS'AlOwDAE_0'
p1035
I1058
sS'Owksyr_0'
p1036
I1060
sS'chdnA_0'
p1037
I1061
sS'{inotifADap_2'
p1038
I1062
sS'AlOqrb_0'
p1039
I1063
sS'wAlbdC_0'
p1040
I1064
sS'fariyDap_1'
p1041
I1065
sS'jinosiy~_1'
p1042
I4024
sS'{igotiSAb_1'
p1043
I1067
sS'mytcl_0'
p1044
I1068
sS'OlAfys_0'
p1045
I1069
sS'Almcrq_0'
p1046
I6596
sS'SaEiyd_1'
p1047
I1071
sS'AlOTlsy_0'
p1048
I1072
sS'hA_1'
p1049
I1073
sS'yad_1'
p1050
I2771
sS'>aEorab_1'
p1051
I1075
sS'hiyuwz_1'
p1052
I1077
sS'nizAE_1'
p1053
I1078
sS'muxotafiy_1'
p1054
I1079
sS'laHoZap_1'
p1055
I1080
sS'6.00_0'
p1056
I1081
sS'rA}id_1'
p1057
I1082
sS'tawoviyq_1'
p1058
I1083
sS'dAfiydiy_1'
p1059
I1084
sS'talah~aY_1'
p1060
I1085
sS'llImAm_0'
p1061
I1086
sS'VAk_0'
p1062
I1087
sS'lmbAcrp_0'
p1063
I1088
sS'AlOnTwnyp_0'
p1064
I1089
sS'vum~a_1'
p1065
I1090
sS'Owk_0'
p1066
I1091
sS'TAzij_1'
p1067
I1092
sS'layol_1'
p1068
I1093
sS'rAliy_1'
p1069
I1094
sS'mujam~aE_1'
p1070
I1095
sS'muhAjim_1'
p1071
I1096
sS'manosuwb_2'
p1072
I1097
sS'manosuwb_1'
p1073
I1098
sS'OTrAf_0'
p1074
I1099
sS'wariv-i_1'
p1075
I1100
sS'{it~aham_1'
p1076
I1101
sS'lAstQnAf_0'
p1077
I2610
sS'maHoZuwr_1'
p1078
I1102
sS'wOkdA_0'
p1079
I6599
sS'OwAxr_0'
p1080
I1104
sS'manoH_1'
p1081
I1105
sS'AlcAQEp_0'
p1082
I1106
sS'duxAn_1'
p1083
I1107
sS'yuwguwsolAfiyA_1'
p1084
I2777
sS'walos_1'
p1085
I1109
sS'marojiE_1'
p1086
I1110
sS'Sanoz_1'
p1087
I1111
sS'marojiE_2'
p1088
I1112
sS'qado_1'
p1089
I1113
sS'manaH-a_1'
p1090
I1115
sS'crTp_0'
p1091
I1116
sS'wtVkr_0'
p1092
I1117
sS'Hajoz_1'
p1093
I1118
sS'OywdyA_0'
p1094
I1119
sS'baladiy~ap_1'
p1095
I1120
sS'wybdO_0'
p1096
I1121
sS'xaTiyr_1'
p1097
I1122
sS'wAlOqbAT_0'
p1098
I1123
sS'jAsotiyn_1'
p1099
I1124
sS'taxal~aY_1'
p1100
I1125
sS'IVAEyp_0'
p1101
I202
sS'fiynuws_1'
p1102
I1127
sS'tamal~ak_1'
p1103
I1128
sS'zahor_1'
p1104
I1129
sS'AlfSAQl_0'
p1105
I3695
sS'SAruwx_1'
p1106
I1131
sS'mbAdQ_0'
p1107
I2237
sS'ObqY_0'
p1108
I1134
sS'Alcrkp_0'
p1109
I1135
sS'Diyq_1'
p1110
I1136
sS'wAlOhlyp_0'
p1111
I1137
sS'>awosaT_2'
p1112
I1138
sS'naqoD_1'
p1113
I1139
sS'malo>ak_1'
p1114
I1140
sS'maqolaE_1'
p1115
I1141
sS'jamoE_1'
p1116
I2783
sS'riboH_1'
p1117
I1143
sS'AlkcH_0'
p1118
I1144
sS'AlcrTp_0'
p1119
I1145
sS'yctbh_0'
p1120
I1146
sS'AlxcxAc_0'
p1121
I1147
sS'hilAl_2'
p1122
I1148
sS'Sad~aq_1'
p1123
I1149
sS'AlOrDyp_0'
p1124
I1150
sS'sakan_1'
p1125
I1151
sS'luwkohArot_1'
p1126
I1152
sS'1991_0'
p1127
I1153
sS'Ondrwz_0'
p1128
I1154
sS'OSdqAC_0'
p1129
I1155
sS'{iSoTidAm_1'
p1130
I1156
sS'AlOHlAm_0'
p1131
I7416
sS'AlwqAQyp_0'
p1132
I1157
sS'chd_0'
p1133
I5311
sS'TabiyEap_1'
p1134
I1159
sS'TamaH-a_1'
p1135
I1160
sS'lqAQhA_0'
p1136
I1161
sS'talA-u_1'
p1137
I1162
sS'rifoqap_1'
p1138
I1163
sS'munotajaE_1'
p1139
I1164
sS'gayom_1'
p1140
I1165
sS'wAlMty_0'
p1141
I1166
sS'bulogAriyA_1'
p1142
I1167
sS'tamas~ak_1'
p1143
I1168
sS'tOhl_0'
p1144
I7103
sS'jifot_1'
p1145
I1169
sS'{imotidAd_1'
p1146
I1170
sS'AlIEdAd_0'
p1147
I1171
sS'frqAC_0'
p1148
I1172
sS'qAdir_1'
p1149
I1174
sS'bAnokuwk_1'
p1150
I1175
sS'qAdir_2'
p1151
I1176
sS'liyuwn_1'
p1152
I1177
sS'taqad~um_1'
p1153
I1178
sS'Is_0'
p1154
I4043
sS'Dariybiy~_1'
p1155
I1180
sS'saliym_2'
p1156
I1181
sS'{isotadoEaY_1'
p1157
I1182
sS'saliym_1'
p1158
I1183
sS'wIn_0'
p1159
I1184
sS'tasoliyH_1'
p1160
I1185
sS'MrAQh_0'
p1161
I1186
sS'DamAnap_1'
p1162
I1187
sS'{iDoTirAb_1'
p1163
I1188
sS'DabaT-ui_1'
p1164
I1189
sS'taHoqiyq_1'
p1165
I1190
sS'wsAQl_0'
p1166
I1191
sS'nAs-u_1'
p1167
I1192
sS'Omyrkyp_0'
p1168
I1193
sS'OfgAn_0'
p1169
I1194
sS'bAb_1'
p1170
I1195
sS'OrAD_0'
p1171
I1196
sS'wAjib_1'
p1172
I1197
sS'mawojuwE_1'
p1173
I1198
sS'taDar~ar_1'
p1174
I1199
sS'xalaf_2'
p1175
I1200
sS'lAEunof_1'
p1176
I1201
sS'AlOngwlyp_0'
p1177
I1202
sS'AlActrAkAt_0'
p1178
I1203
sS'wfAQD_0'
p1179
I1204
sS'tagoyiyr_1'
p1180
I1205
sS'mawoDiE_1'
p1181
I1206
sS'bcn_0'
p1182
I1207
sS'ncrp_0'
p1183
I1208
sS'OEyc_0'
p1184
I7250
sS'wtOhl_0'
p1185
I1210
sS'ruwAnodA_1'
p1186
I1211
sS'wqAQE_0'
p1187
I1212
sS'wuquwf_1'
p1188
I6616
sS'{inoEiqAd_1'
p1189
I1213
sS'Haqiyqiy~_1'
p1190
I1214
sS'nafosiy~_1'
p1191
I1215
sS'nadim-a_1'
p1192
I1216
sS'verb_pseudo'
p1193
I5397
sS'AlIEArp_0'
p1194
I1217
sS'OEynhA_0'
p1195
I1218
sS'tilfizyuwn_1'
p1196
I1219
sS'AljVwr_0'
p1197
I1220
sS'wIV_0'
p1198
I1221
sS'daEowaY_1'
p1199
I1222
sS'wOmhlh_0'
p1200
I1223
sS'vamar_1'
p1201
I1224
sS'tWvr_0'
p1202
I1225
sS'dafoE_1'
p1203
I1226
sS'Iqlymy_0'
p1204
I1227
sS'>aZohar_1'
p1205
I4050
sS'mukav~af_1'
p1206
I1229
sS'OwkAs_0'
p1207
I1230
sS'xArijiy~_1'
p1208
I1231
sS'Tuwlokarm_1'
p1209
I1232
sS'Oywb_0'
p1210
I1233
sS'AlbyQy_0'
p1211
I1234
sS'Eaqabap_1'
p1212
I1235
sS'Eaqabap_2'
p1213
I1236
sS'OnHAC_0'
p1214
I1237
sS'AlmEycp_0'
p1215
I1238
sS'faDiyHap_1'
p1216
I1239
sS'wAlIsbAny_0'
p1217
I1240
sS'Tuwkiyuw_1'
p1218
I1241
sS'TAwilap_1'
p1219
I1242
sS'musad~as_1'
p1220
I1243
sS'TirAz_1'
p1221
I1244
sS'sayof_1'
p1222
I1245
sS'sayof_2'
p1223
I1246
sS'IVA_0'
p1224
I1247
sS'OSAbE_0'
p1225
I1248
sS'AlchAby_0'
p1226
I1249
sS'liybiyriyA_1'
p1227
I1251
sS'Euhodap_1'
p1228
I1252
sS'tawAlaY_1'
p1229
I1253
sS'mivAl_1'
p1230
I1254
sS'AlIflAs_0'
p1231
I1255
sS'ntAQj_0'
p1232
I1256
sS'munAsabap_1'
p1233
I1257
sS'dAQy_0'
p1234
I1258
sS'Eam~-u_1'
p1235
I1259
sS'suwiysriy~_1'
p1236
I1260
sS'{ixotatam_1'
p1237
I1261
sS'riEAyap_1'
p1238
I1262
sS'AlMn_0'
p1239
I1263
sS'maqoEad_1'
p1240
I1264
sS'AlITlAq_0'
p1241
I1265
sS'OSdqAQh_0'
p1242
I1266
sS'taSad~aY_1'
p1243
I1267
sS'lbqAC_0'
p1244
I2795
sS'bckyk_0'
p1245
I1269
sS'ctAC_0'
p1246
I1270
sS'AlOSgr_0'
p1247
I1271
sS'karom_2'
p1248
I1272
sS'dAfaE_1'
p1249
I1273
sS'taHal~iy_1'
p1250
I1274
sS'OnnA_0'
p1251
I1275
sS'AlISAbp_0'
p1252
I1276
sS'kuwmiydiyA_1'
p1253
I1277
sS'qiboTiy~_1'
p1254
I1278
sS'Hayodar_1'
p1255
I1279
sS'diyniys_1'
p1256
I1280
sS'qAE_1'
p1257
I7437
sS'kiyniydiy_1'
p1258
I1281
sS'Iklyrykyp_0'
p1259
I1282
sS'ramaDAn_1'
p1260
I6627
sS'munotasib_1'
p1261
I5331
sS'wIrAdth_0'
p1262
I6628
sS'wckAwY_0'
p1263
I1285
sS'AlmWcrAt_0'
p1264
I1286
sS'lIyjAd_0'
p1265
I1287
sS'{ijotAz_1'
p1266
I1288
sS'Mn_0'
p1267
I1289
sS'{isotajowab_1'
p1268
I1290
sS'cyxp_0'
p1269
I1291
sS'HaDan-u_1'
p1270
I1292
sS'ltstOnf_0'
p1271
I1294
sS'Haq~aq_1'
p1272
I1295
sS'{it~ifAq_1'
p1273
I1296
sS'T_1'
p1274
I104
sS'nawoE_1'
p1275
I1298
sS'OcAr_0'
p1276
I1299
sS'Olf_0'
p1277
I1300
sS'AlHVr_0'
p1278
I1301
sS'jzAQry_0'
p1279
I1303
sS'bidAyap_1'
p1280
I1304
sS'EumAn_1'
p1281
I1305
sS'gumuwD_1'
p1282
I1306
sS'wijohap_1'
p1283
I1307
sS'naH~At_1'
p1284
I1308
sS'125_0'
p1285
I1309
sS'Oglqt_0'
p1286
I1310
sS'Albcry_0'
p1287
I1311
sS'85_0'
p1288
I221
sS'nfVwh_0'
p1289
I1313
sS'AlEAQdyn_0'
p1290
I1314
sS'dar~Ajap_1'
p1291
I245
sS'1234033_0'
p1292
I1316
sS'cyxw_0'
p1293
I248
sS'bInyrjy_0'
p1294
I1318
sS'tasowiyqiy~_1'
p1295
I2804
sS'tajan~ub_1'
p1296
I1320
sS'maDaY-i_1'
p1297
I1322
sS'mufADalap_1'
p1298
I1323
sS'wOxrY_0'
p1299
I1324
sS'Sawon_1'
p1300
I1325
sS'naSaH-a_1'
p1301
I6636
sS'baHov_1'
p1302
I1327
sS'baHov_2'
p1303
I1328
sS'Ham~al_1'
p1304
I1329
sS'fWAd_0'
p1305
I1330
sS'AlmcArkwn_0'
p1306
I347
sS'nsAC_0'
p1307
I1332
sS'murotafaE_1'
p1308
I1333
sS'Pl_1'
p1309
I1334
sS'waquwd_1'
p1310
I1335
sS'284_0'
p1311
I1336
sS'bar~iy~_1'
p1312
I1337
sS'wajad-i_1'
p1313
I1338
sS'buroj_2'
p1314
I1339
sS'buroj_1'
p1315
I1340
sS'quboruSiy~_1'
p1316
I1341
sS'quboruSiy~_2'
p1317
I406
sS'raHiyl_1'
p1318
I1343
sS'AlcTHAt_0'
p1319
I1344
sS'Omyrky_0'
p1320
I1345
sS'tasomiyap_1'
p1321
I1346
sS'OWkd_0'
p1322
I2811
sS'Haq~-iu_1'
p1323
I1348
sS'AlmrcH_0'
p1324
I1349
sS'OnTwnwf_0'
p1325
I1350
sS'cAhd_0'
p1326
I1351
sS'qabAlap_1'
p1327
I1352
sS'jabohap_1'
p1328
I6688
sS'bhAtAcAryA_0'
p1329
I1353
sS'{iHotifAl_1'
p1330
I1354
sS'ycklAn_0'
p1331
I1355
sS'qubuwl_1'
p1332
I1356
sS'HAjap_1'
p1333
I1357
sS'mutawASil_1'
p1334
I1358
sS'kul~_1'
p1335
I1359
sS'rAnoyiyriy_1'
p1336
I1360
sS'wcrkAt_0'
p1337
I1361
sS'{ifotirAD_1'
p1338
I1362
sS'tawaz~aE_1'
p1339
I1363
sS'mut~ahim_1'
p1340
I1364
sS'OckAlh_0'
p1341
I1365
sS'gad_1'
p1342
I1366
sS'AlIsbAnyp_0'
p1343
I1367
sS'mnV_0'
p1344
I1368
sS'Vkrt_0'
p1345
I1369
sS'wAlcmAl_0'
p1346
I1370
sS'mujotamaE_1'
p1347
I1371
sS'baHoriy~_1'
p1348
I1372
sS'buwrog_1'
p1349
I1373
sS'hVA_0'
p1350
I1374
sS'AlInsAn_0'
p1351
I1375
sS'AlOrbEp_0'
p1352
I1376
sS'1961_0'
p1353
I1377
sS'wOkd_0'
p1354
I1378
sS'wmnAqcp_0'
p1355
I1379
sS'crydp_0'
p1356
I1380
sS'ragad_1'
p1357
I678
sS'AlfAQz_0'
p1358
I1382
sS'bilojiykA_1'
p1359
I1383
sS'bAsotiyA_1'
p1360
I1384
sS'{irotiyAH_1'
p1361
I1385
sS'mAzuwt_1'
p1362
I1386
sS'maSorif_1'
p1363
I1387
sS'sad~ad_1'
p1364
I1389
sS'xaSom_1'
p1365
I1390
sS'EalAmap_1'
p1366
I1391
sS'wAlOjnby_0'
p1367
I1392
sS'wOqAmt_0'
p1368
I1393
sS'AlmstcfyAt_0'
p1369
I4083
sS'lIHlAl_0'
p1370
I1395
sS'kArAkAs_1'
p1371
I1396
sS'kay_1'
p1372
I1397
sS'kuHuwl_1'
p1373
I1398
sS'wtnfyV_0'
p1374
I1399
sS'miZal~ap_1'
p1375
I1400
sS'dirAmiy~_1'
p1376
I1401
sS'wkVlk_0'
p1377
I1402
sS'miyvAq_1'
p1378
I1404
sS'jinirAl_2'
p1379
I1405
sS'karodinAl_1'
p1380
I1406
sS'wAlEcryn_0'
p1381
I6651
sS'78_0'
p1382
I1408
sS'taEaS~ub_1'
p1383
I1409
sS'yVkr_0'
p1384
I1410
sS'luwrod_1'
p1385
I1411
sS'SafoHap_1'
p1386
I1412
sS'dAQrp_0'
p1387
I1413
sS'lAHaq_1'
p1388
I1414
sS'masAr_1'
p1389
I1415
sS'Haloqap_1'
p1390
I1416
sS'dusotuwriy~_1'
p1391
I1417
sS'rAbaT_1'
p1392
I1418
sS'waSaf_1'
p1393
I1419
sS'AlMbAC_0'
p1394
I2327
sS'EadAlap_1'
p1395
I1421
sS'xAnap_1'
p1396
I1422
sS'makAn_1'
p1397
I1423
sS'Omyrkyyn_0'
p1398
I1424
sS'AlmcAwrAt_0'
p1399
I6653
sS'Owlyfr_0'
p1400
I1427
sS'garAmap_1'
p1401
I1428
sS'cryk_0'
p1402
I1429
sS'jad~ad_1'
p1403
I1430
sS'taSoniyf_1'
p1404
I1431
sS'57.75_0'
p1405
I1432
sS'Sirobiy~_1'
p1406
I5353
sS'rAyap_1'
p1407
I1434
sS'sAQq_0'
p1408
I1435
sS'kAvuwliykiy~_1'
p1409
I1436
sS'19408_0'
p1410
I1437
sS'bas~Am_1'
p1411
I1438
sS'sAm~_1'
p1412
I1439
sS'qawos_1'
p1413
I1440
sS'bcyr_0'
p1414
I1441
sS'AlOcgAl_0'
p1415
I1442
sS'taban~aY_1'
p1416
I1443
sS'Olksndr_0'
p1417
I1444
sS'mcAryE_0'
p1418
I1445
sS'tchd_0'
p1419
I1446
sS'maEoqil_1'
p1420
I1447
sS'niylosuwn_1'
p1421
I1448
sS'Eunoquwdiy~_1'
p1422
I1449
sS'muhim~_1'
p1423
I1450
sS'HizAm_1'
p1424
I1452
sS'AlOwrAq_0'
p1425
I1453
sS'nawawiy~_1'
p1426
I4092
sS'Onjlys_0'
p1427
I1455
sS'munofarid_1'
p1428
I1456
sS'mutalofaz_1'
p1429
I1457
sS'faroD_1'
p1430
I1458
sS'OjsAd_0'
p1431
I1459
sS'Vwyhm_0'
p1432
I1460
sS'Haqiyqap_1'
p1433
I1461
sS'smAC_0'
p1434
I1462
sS'ryctr_0'
p1435
I1463
sS'magAr_1'
p1436
I1464
sS'mAloTA_1'
p1437
I1465
sS'makotabap_1'
p1438
I1466
sS'taEAwun_1'
p1439
I1467
sS'taEoriyf_1'
p1440
I1468
sS'qaTar_1'
p1441
I1469
sS'maHoDar_1'
p1442
I2824
sS'Eunof_1'
p1443
I1471
sS'bcAr_0'
p1444
I1472
sS'majar_1'
p1445
I1473
sS'{inotiHAriy~_1'
p1446
I1474
sS'Tul~Abiy~_1'
p1447
I1475
sS'qiyAm_1'
p1448
I1476
sS'majozarap_1'
p1449
I1477
sS'tasaw~uq_1'
p1450
I1478
sS'bqVAQf_0'
p1451
I1479
sS'banok_1'
p1452
I1480
sS'AlIDAfy_0'
p1453
I1481
sS'OmyrkyAn_0'
p1454
I1482
sS'AlkhrbAQyp_0'
p1455
I1483
sS'nafaY_1'
p1456
I1484
sS'tagal~ab_1'
p1457
I1485
sS'dusotuwr_1'
p1458
I1486
sS'cxSyA_0'
p1459
I1487
sS'SaH~Af_1'
p1460
I1488
sS'diykotAtuwr_1'
p1461
I1489
sS'yuwkuwhAmA_1'
p1462
I1490
sS'OjrtA_0'
p1463
I1491
sS'biyrap_1'
p1464
I1492
sS'rad~ad_1'
p1465
I1493
sS'bbrACp_0'
p1466
I1494
sS'OmvAl_0'
p1467
I1495
sS'salaf_1'
p1468
I1496
sS'IsrAQylyp_0'
p1469
I1497
sS'wmrMh_0'
p1470
I1498
sS'rAbiyn_1'
p1471
I1499
sS'ncAT_0'
p1472
I1500
sS'mugotarib_1'
p1473
I1501
sS'maEoqid_1'
p1474
I1502
sS'wTOp_0'
p1475
I1503
sS'AlOwsT_0'
p1476
I1504
sS'lawom_1'
p1477
I1505
sS'maqAm_1'
p1478
I1506
sS'21_0'
p1479
I1507
sS'cqyr_0'
p1480
I1508
sS'wtOvyrh_0'
p1481
I1509
sS'mur~_1'
p1482
I1510
sS'{ixotirAq_1'
p1483
I1511
sS'mawoEid_1'
p1484
I1512
sS'OlmAny_0'
p1485
I1513
sS'mubotakir_1'
p1486
I1514
sS'{inotaqad_1'
p1487
I1515
sS'taSoHiyH_1'
p1488
I1516
sS'Saliyb_1'
p1489
I1517
sS'tWkd_0'
p1490
I1518
sS'munAhiD_1'
p1491
I1519
sS'simosAr_1'
p1492
I1520
sS'AldAQm_0'
p1493
I1521
sS'bruwtisotAnotiy~_1'
p1494
I6672
sS'marokaziy~_1'
p1495
I1523
sS'Ordny_0'
p1496
I1524
sS'EAcwr_0'
p1497
I4106
sS'EAbir_1'
p1498
I1526
sS'AlImArAty_0'
p1499
I1527
sS'jArodiyAn_1'
p1500
I1528
sS'>arofad_1'
p1501
I1529
sS'nafos_1'
p1502
I1530
sS'{inotaqal_1'
p1503
I1531
sS'nusayobap_1'
p1504
I1535
sS'VrAEy_0'
p1505
I1533
sS'{isotiboEAd_1'
p1506
I1534
sS'bAcr_0'
p1507
I296
sS'AlDwC_0'
p1508
I1537
sS'gadAp_1'
p1509
I1538
sS'HAjiz_1'
p1510
I1539
sS'OHrq_0'
p1511
I1540
sS'mafohuwm_2'
p1512
I6675
sS'65_0'
p1513
I7500
sS'OTfAl_0'
p1514
I1542
sS'OsmAC_0'
p1515
I1543
sS'rycA_0'
p1516
I1544
sS'Obyn_0'
p1517
I1545
sS'AlOsAtVp_0'
p1518
I1546
sS'Ealam_1'
p1519
I1547
sS'hir~ap_1'
p1520
I1548
sS'EAbiv_1'
p1521
I5369
sS'filasoTiyn_1'
p1522
I1550
sS'bAriz_1'
p1523
I1551
sS'EASifap_1'
p1524
I1552
sS'fahiym_1'
p1525
I1553
sS'AlTwArQ_0'
p1526
I1554
sS'nazal-i_1'
p1527
I1555
sS'yuwnAyotid_1'
p1528
I5372
sS'fiyatonAmiy~_1'
p1529
I2910
sS'zayon_2'
p1530
I1558
sS'28_0'
p1531
I1559
sS'AlfDAC_0'
p1532
I1560
sS'taqodiyr_1'
p1533
I1561
sS'AlmsWwlwn_0'
p1534
I1562
sS'{iHotakar_1'
p1535
I1563
sS'lA_1'
p1536
I6681
sS'kAnotirobriy_1'
p1537
I5375
sS'siylofA_1'
p1538
I1567
sS'yanAyir_1'
p1539
I1568
sS'AlOcjAr_0'
p1540
I1569
sS'OHrz_0'
p1541
I1570
sS'tasowiyq_1'
p1542
I1571
sS'AlMxryn_0'
p1543
I1572
sS'hAjam_1'
p1544
I1573
sS'buwrotlAnod_1'
p1545
I1574
sS'SAlap_1'
p1546
I1575
sS'mQty_0'
p1547
I1576
sS'nASir_1'
p1548
I1577
sS'nASir_2'
p1549
I1578
sS'OETY_0'
p1550
I1579
sS'lmtOxrAthA_0'
p1551
I1580
sS'muzodawij_1'
p1552
I1581
sS'AlsAQdp_0'
p1553
I1582
sS'HaZiyrap_1'
p1554
I1583
sS'OrADyhA_0'
p1555
I1584
sS'suwiyd_1'
p1556
I1585
sS'{inoTawaY_1'
p1557
I1586
sS'hinoriy_1'
p1558
I1587
sS'{ilotazam_1'
p1559
I1588
sS'waraY-i_1'
p1560
I1589
sS'fayoruws_1'
p1561
I1590
sS'AlOrjH_0'
p1562
I1592
sS'yuwniyuw_1'
p1563
I1593
sS'brOsh_0'
p1564
I1594
sS'xuSuwS_1'
p1565
I1595
sS'numuw~_1'
p1566
I1596
sS'tawoEiyap_1'
p1567
I1597
sS'yWyd_0'
p1568
I4122
sS'dayor_2'
p1569
I1599
sS'dayor_1'
p1570
I1983
sS'qaSiyr_1'
p1571
I1602
sS'wOmDY_0'
p1572
I1603
sS'qamoH_1'
p1573
I1604
sS'nasamap_1'
p1574
I1605
sS'qil~ap_1'
p1575
I1607
sS'muqad~as_1'
p1576
I1608
sS'zaHomap_1'
p1577
I1609
sS'wstctry_0'
p1578
I1610
sS'maqoTaE_1'
p1579
I1611
sS'AltcxyS_0'
p1580
I1612
sS'AlOhlyp_0'
p1581
I1613
sS'SA}im_1'
p1582
I4269
sS'OsrY_0'
p1583
I2082
sS'HAmiy_1'
p1584
I1616
sS'HiyAkap_1'
p1585
I1617
sS'llbnAC_0'
p1586
I1618
sS'ncTAC_0'
p1587
I1619
sS'SalAHiy~ap_1'
p1588
I1620
sS'ISAbp_0'
p1589
I1621
sS'muEotaqal_1'
p1590
I1622
sS'cEbnA_0'
p1591
I2112
sS'mutaHad~iv_1'
p1592
I1624
sS'Eamiyd_1'
p1593
I1625
sS'EAq-u_1'
p1594
I1626
sS'AlOrdny_0'
p1595
I1627
sS'crAC_0'
p1596
I1628
sS'suw_1'
p1597
I1629
sS'xADiE_1'
p1598
I1630
sS'wIncAC_0'
p1599
I1631
sS'cq_0'
p1600
I1632
sS'kAriybiy_1'
p1601
I1633
sS'liS~_1'
p1602
I1635
sS'{inoDimAm_1'
p1603
I4129
sS'14_0'
p1604
I2200
sS'mAruwn_1'
p1605
I1638
sS'ruEob_1'
p1606
I1639
sS'Hariy~_1'
p1607
I1640
sS'mavul-u_1'
p1608
I1641
sS'tAbiEiy~_1'
p1609
I1642
sS'taHoliyl_1'
p1610
I1643
sS'OsEAr_0'
p1611
I1644
sS'AltcryEy_0'
p1612
I1645
sS'muEiyn_1'
p1613
I2267
sS'yWvr_0'
p1614
I1647
sS'tabAdul_1'
p1615
I1648
sS'jubayol_1'
p1616
I1649
sS'bariyq_1'
p1617
I1650
sS'fOyn_0'
p1618
I1651
sS'wAlmsWwlyn_0'
p1619
I1652
sS'AlITAr_0'
p1620
I1653
sS'OrslhA_0'
p1621
I1654
sS'jaliyl_2'
p1622
I2305
sS'lAjQ_0'
p1623
I1656
sS'Hatof_1'
p1624
I1657
sS'faraH_2'
p1625
I1658
sS'bIdArp_0'
p1626
I1659
sS'faraH_1'
p1627
I5151
sS'taraf_1'
p1628
I1661
sS'MbAd_0'
p1629
I1662
sS'wAlfqhAC_0'
p1630
I1663
sS'AncACkk_0'
p1631
I1664
sS'mAr_1'
p1632
I2851
sS'OtyH_0'
p1633
I1666
sS'100_0'
p1634
I758
sS'taxoriyj_1'
p1635
I1667
sS'ltclsy_0'
p1636
I1668
sS'OjrAs_0'
p1637
I1669
sS'Sadiyq_1'
p1638
I1670
sS'bIHjAm_0'
p1639
I1671
sS'zAl-a_1'
p1640
I1672
sS'jaliyd_1'
p1641
I1673
sS'60_0'
p1642
I1674
sS'zayon_1'
p1643
I1557
sS'ltckl_0'
p1644
I1675
sS'taEAraf_1'
p1645
I1676
sS'Ibrhym_0'
p1646
I2391
sS'misAHap_1'
p1647
I1678
sS'AlljwC_0'
p1648
I1679
sS'AlmWlfp_0'
p1649
I1680
sS'lljyc_0'
p1650
I1681
sS'ItlAf_0'
p1651
I1682
sS'OlgAm_0'
p1652
I6700
sS'wazon_1'
p1653
I1684
sS'>aEoZam_2'
p1654
I1685
sS'Ivywbyp_0'
p1655
I1686
sS'waDoE_1'
p1656
I2455
sS'nawoEiy~ap_1'
p1657
I1688
sS'mukAfaHap_1'
p1658
I1689
sS'1800_0'
p1659
I1690
sS'bVlhA_0'
p1660
I1691
sS'HiroS_1'
p1661
I1692
sS'tWmnhA_0'
p1662
I1693
sS'OEmAlh_0'
p1663
I2479
sS'siloEap_1'
p1664
I5398
sS'tasohiyl_1'
p1665
I1696
sS'cqyqh_0'
p1666
I1697
sS'huwlAnodiy~_1'
p1667
I1698
sS'bckl_0'
p1668
I1699
sS'TAlab_1'
p1669
I1700
sS'AlOrz_0'
p1670
I1701
sS'tVkAryA_0'
p1671
I1702
sS'xuT~ap_1'
p1672
I1703
sS'mugolaq_1'
p1673
I1704
sS'frAnokofuwrot_1'
p1674
I1705
sS'1976_0'
p1675
I1706
sS'VhwlhA_0'
p1676
I1707
sS'OHbbth_0'
p1677
I1708
sS'nAr_1'
p1678
I1709
sS'OwskAr_0'
p1679
I1710
sS'AlcwT_0'
p1680
I1711
sS'kuwnojris_1'
p1681
I1712
sS'mazAr_1'
p1682
I1713
sS'miSodAq_1'
p1683
I1714
sS'AlOjAnb_0'
p1684
I2595
sS'taHad~iy_1'
p1685
I1716
sS'mutafar~ij_1'
p1686
I6710
sS'mVkrp_0'
p1687
I1718
sS'taqodiyr_2'
p1688
I1719
sS'wuquwE_1'
p1689
I2856
sS'{isotiEodAd_1'
p1690
I1721
sS'nATiq_1'
p1691
I1722
sS'nAbulus_1'
p1692
I4141
sS'wnOml_0'
p1693
I1724
sS'mAruwniy~_1'
p1694
I1725
sS'yljO_0'
p1695
I6711
sS'AlOhmyp_0'
p1696
I1727
sS'taboliyg_1'
p1697
I1728
sS'sybdO_0'
p1698
I4557
sS'maEoluwm_1'
p1699
I1729
sS'>aEolan_1'
p1700
I1730
sS'wIyTAlyA_0'
p1701
I1731
sS'kuwAl_1'
p1702
I1732
sS'SiH~iy~_1'
p1703
I1733
sS'Saxab_1'
p1704
I1734
sS'juwnosuwn_1'
p1705
I1735
sS'fOnA_0'
p1706
I1736
sS'yAsiyn_1'
p1707
I2686
sS'wcAhd_0'
p1708
I1738
sS'AEtdAC_0'
p1709
I1739
sS'crfAn_0'
p1710
I2696
sS'AlOrq_0'
p1711
I1741
sS'wOErf_0'
p1712
I1742
sS'niTAq_1'
p1713
I1743
sS'taSaw~ur_1'
p1714
I1744
sS'dAxiliy~_1'
p1715
I1745
sS'tasAruE_1'
p1716
I1746
sS'nawaY-i_1'
p1717
I1747
sS'IyAhA_0'
p1718
I6827
sS'yxTQ_0'
p1719
I1748
sS'kawAriy_1'
p1720
I2756
sS'EAm~_1'
p1721
I1750
sS'masoraHiy~ap_1'
p1722
I1751
sS'bugoyap_1'
p1723
I1752
sS'ruwdus_1'
p1724
I2779
sS'naqomap_1'
p1725
I1754
sS'OqwY_0'
p1726
I1532
sS'ZAhir_1'
p1727
I1756
sS'EiSAm_1'
p1728
I1758
sS'AltjrQp_0'
p1729
I2803
sS'1988_0'
p1730
I1760
sS'taHoliyq_1'
p1731
I1761
sS'wAlIElAn_0'
p1732
I1762
sS'>aHoraq_1'
p1733
I1763
sS'xabar-u_1'
p1734
I1764
sS'AlOvyr_0'
p1735
I1765
sS'wAliy_1'
p1736
I1766
sS'sibAq_1'
p1737
I1767
sS'suwriy~_1'
p1738
I1768
sS'stuwloyAruwf_1'
p1739
I1769
sS'>asomaE_1'
p1740
I1770
sS'IqlAE_0'
p1741
I1771
sS'muboram_1'
p1742
I2881
sS'EaSabiy~_1'
p1743
I1773
sS'1980_0'
p1744
I1774
sS'ITlAqA_0'
p1745
I2909
sS'rAwad_1'
p1746
I1776
sS'AlOrADy_0'
p1747
I1777
sS'mumav~iliy~ap_1'
p1748
I1778
sS'jaw~_1'
p1749
I1779
sS'turokumAn_1'
p1750
I1780
sS'IymAnh_0'
p1751
I1781
sS'crm_0'
p1752
I1782
sS'IbrAhym_0'
p1753
I1783
sS'AlmnfVp_0'
p1754
I1785
sS'tcrE_0'
p1755
I1786
sS'diyn_1'
p1756
I1787
sS'OmAm_0'
p1757
I1788
sS'tajAwuz_1'
p1758
I5575
sS'bagaY-i_1'
p1759
I1789
sS'muwAkab_1'
p1760
I1790
sS'mukaw~in_1'
p1761
I1791
sS'marojiEiy~_1'
p1762
I1792
sS'maqoTuwE_1'
p1763
I1793
sS'OxbAr_0'
p1764
I2997
sS'Eavar-u_1'
p1765
I1795
sS'Om_0'
p1766
I1796
sS'musotaHoDar_1'
p1767
I4151
sS'muSiybap_1'
p1768
I1799
sS'minoHap_1'
p1769
I1800
sS'yAsir_1'
p1770
I3029
sS'zAmobiyA_1'
p1771
I1802
sS'bAlOmAzygyp_0'
p1772
I1803
sS'AtxAV_0'
p1773
I4040
sS'lqAQh_0'
p1774
I1804
sS'AlIlktrwnyp_0'
p1775
I1805
sS'OyAm_0'
p1776
I1806
sS'AlIrv_0'
p1777
I1807
sS'AntmAQhA_0'
p1778
I1808
sS'muhanodis_1'
p1779
I3267
sS'taSoriyH_1'
p1780
I1809
sS'OdAC_0'
p1781
I1810
sS'gAniy~_1'
p1782
I3095
sS'muxAlafap_1'
p1783
I1812
sS'bunoduqiy~ap_1'
p1784
I1813
sS'bunoduqiy~ap_2'
p1785
I1814
sS'mulAHaqap_1'
p1786
I2864
sS'saw~al_1'
p1787
I1816
sS'taDAEaf_1'
p1788
I1817
sS'nAc_0'
p1789
I3132
sS'AltgVyp_0'
p1790
I1819
sS'llInmAC_0'
p1791
I1820
sS'cAbyn_0'
p1792
I1821
sS'brclwnp_0'
p1793
I1822
sS'fiylom_1'
p1794
I1823
sS'AlAEtdACAt_0'
p1795
I1824
sS'rufAt_1'
p1796
I1825
sS'xanodaq_2'
p1797
I1826
sS'Did~_1'
p1798
I6726
sS'Eiroq_1'
p1799
I1828
sS'hyQp_0'
p1800
I6576
sS'140_0'
p1801
I1829
sS'Has~Asiy~_1'
p1802
I1830
sS'tagal~ub_1'
p1803
I3234
sS'mulotaqaY_1'
p1804
I3241
sS'Onsyt_0'
p1805
I1833
sS'nitosAriym_1'
p1806
I1834
sS'musolim_1'
p1807
I1835
sS'thdQp_0'
p1808
I1836
sS'xuwst_1'
p1809
I1837
sS'tawar~uT_1'
p1810
I4158
sS'naruwj_1'
p1811
I1839
sS'tOyydnA_0'
p1812
I1840
sS'AllAjQwn_0'
p1813
I1841
sS'101_0'
p1814
I1842
sS'AlOmwr_0'
p1815
I1843
sS'mutaTaw~ir_1'
p1816
I1844
sS'raqabap_1'
p1817
I1845
sS'wtcml_0'
p1818
I1846
sS'Silap_1'
p1819
I1847
sS'saEiyd_1'
p1820
I1848
sS'saEiyd_2'
p1821
I1849
sS'naw~aE_1'
p1822
I1850
sS'OsmE_0'
p1823
I1851
sS'firoqap_1'
p1824
I1852
sS'taSomiym_1'
p1825
I5426
sS'qAdim_2'
p1826
I4160
sS'wIsmAEyl_0'
p1827
I3346
sS'waSof_1'
p1828
I1856
sS'wOndryA_0'
p1829
I1857
sS'wuDuwH_1'
p1830
I1858
sS'janob_1'
p1831
I1859
sS'sal~am_1'
p1832
I1860
sS'bATil_1'
p1833
I1861
sS'muHaq~iq_1'
p1834
I3377
sS'AlnAcT_0'
p1835
I2874
sS'AlOgVyp_0'
p1836
I1864
sS'baqiy-a_1'
p1837
I2875
sS'gAbuwniy~_1'
p1838
I3403
sS'maquwlap_1'
p1839
I1867
sS'maziyd_1'
p1840
I1868
sS'AnqDAC_0'
p1841
I1869
sS'Sadad_1'
p1842
I1870
sS'mudab~ir_1'
p1843
I1871
sS'EudowAn_1'
p1844
I1872
sS'Hayoviy~ap_1'
p1845
I1873
sS'{ixotilAf_1'
p1846
I1874
sS'fAtiykAn_1'
p1847
I1875
sS'dwAC_0'
p1848
I1876
sS'Mtlq_0'
p1849
I1877
sS'xAfiyiyr_1'
p1850
I1878
sS'OhdAf_0'
p1851
I1879
sS'mylwcyfytc_0'
p1852
I1880
sS'mav~al_1'
p1853
I1881
sS'mumay~az_1'
p1854
I1882
sS'{iHotasab_1'
p1855
I1883
sS'garob_1'
p1856
I1884
sS'OcArt_0'
p1857
I1885
sS'jabolap_1'
p1858
I4211
sS'tafokiyr_1'
p1859
I1887
sS'OqAl_0'
p1860
I1888
sS'musotaqobal_1'
p1861
I1889
sS'cAcAt_0'
p1862
I1890
sS'wntAQjh_0'
p1863
I1891
sS'tajAwub_1'
p1864
I3523
sS'AlSHrAC_0'
p1865
I1893
sS'IElAnyp_0'
p1866
I1894
sS'OrkAn_0'
p1867
I1895
sS'wakorap_1'
p1868
I3549
sS'minozaE_1'
p1869
I3552
sS'taEah~ud_1'
p1870
I1898
sS'Olyks_0'
p1871
I1899
sS'IfsAHA_0'
p1872
I1900
sS'AlIsbAny_0'
p1873
I1901
sS'jyc_0'
p1874
I1902
sS'wjACt_0'
p1875
I1903
sS'IyrAn_0'
p1876
I3594
sS'AlInklyzy_0'
p1877
I1905
sS'fadAHap_1'
p1878
I1906
sS'riyf_1'
p1879
I1907
sS'muHADir_1'
p1880
I1908
sS'cyrwdy_0'
p1881
I1909
sS'wAljyc_0'
p1882
I1910
sS'mutaSad~ir_1'
p1883
I3632
sS'ltcgyl_0'
p1884
I1912
sS'raHom`n_1'
p1885
I3642
sS'wOdnY_0'
p1886
I1914
sS'dmcq_0'
p1887
I1915
sS'muqar~ir_1'
p1888
I1916
sS'muhotaz~_1'
p1889
I1917
sS'wOlqt_0'
p1890
I3109
sS'llcAbAt_0'
p1891
I3667
sS'ImbrATwrh_0'
p1892
I1919
sS'AxtbOwA_0'
p1893
I3678
sS'lOjhzp_0'
p1894
I1921
sS'muxay~am_1'
p1895
I4168
sS'AlkAtdrAQyp_0'
p1896
I1923
sS'Hasan_2'
p1897
I1924
sS'Hasan_1'
p1898
I1925
sS'biyruw_1'
p1899
I1926
sS'samiE-a_1'
p1900
I1927
sS'9.5_0'
p1901
I1928
sS'vAniy_3'
p1902
I5439
sS'liybiyA_1'
p1903
I1930
sS'sinoyuwr_1'
p1904
I1931
sS'EidAd_1'
p1905
I1932
sS'bOwly_0'
p1906
I1933
sS'taEAmal_1'
p1907
I1934
sS'waj~ah_1'
p1908
I1935
sS'qASir_1'
p1909
I1936
sS'wa_1'
p1910
I1937
sS'finizuwil~iy~_1'
p1911
I1938
sS'masEuwd_1'
p1912
I1939
sS'OnqV_0'
p1913
I3798
sS'mcAhd_0'
p1914
I4614
sS'maHofuwZ_2'
p1915
I1942
sS'maHofuwZ_1'
p1916
I1943
sS'Hay~_3'
p1917
I1944
sS'Hay~_2'
p1918
I1945
sS'taqAsum_1'
p1919
I1946
sS'OfDl_0'
p1920
I1947
sS'vulov_1'
p1921
I1948
sS'muEAdiy_1'
p1922
I1949
sS'manoduwb_1'
p1923
I1950
sS'ncwC_0'
p1924
I1951
sS'maDomuwn_1'
p1925
I1952
sS'xaTof_1'
p1926
I1953
sS'cbAk_0'
p1927
I1954
sS'mutalaq~iy_1'
p1928
I1955
sS'AlOmp_0'
p1929
I1956
sS'wIbAn_0'
p1930
I1957
sS'AlObd_0'
p1931
I1958
sS'xuTuwrap_1'
p1932
I1784
sS'cymwn_0'
p1933
I1960
sS'AlOfrAd_0'
p1934
I1961
sS'OflAm_0'
p1935
I1962
sS'AllqACAt_0'
p1936
I1963
sS'59_0'
p1937
I1964
sS'{isotibodAl_1'
p1938
I1965
sS'cAh_0'
p1939
I1966
sS'mncOth_0'
p1940
I1967
sS'bIfAdth_0'
p1941
I1968
sS'buwsonap_1'
p1942
I1969
sS'IrgAm_0'
p1943
I1970
sS'kam~iy~ap_1'
p1944
I1971
sS'mA_2'
p1945
I1972
sS'mA_1'
p1946
I1974
sS'kAbul_1'
p1947
I1975
sS'jaw~iy~_1'
p1948
I1976
sS'wbAltMmr_0'
p1949
I1977
sS'AlIsrAQylyp_0'
p1950
I1978
sS'lIHrAz_0'
p1951
I1979
sS'{isotagolaq_1'
p1952
I1980
sS'AlIElAm_0'
p1953
I1981
sS'1905_0'
p1954
I1982
sS'wlOsbAb_0'
p1955
I1600
sS'mumav~al_1'
p1956
I1984
sS'xuTobap_1'
p1957
I1985
sS'Eazom_1'
p1958
I1986
sS'>atAH_1'
p1959
I1987
sS'binoyap_1'
p1960
I1988
sS'OmstrdAm_0'
p1961
I1989
sS'cftcnkw_0'
p1962
I1990
sS'nAhiyka_1'
p1963
I1991
sS'>arAd_1'
p1964
I2901
sS'bayotiy~_1'
p1965
I1994
sS'Imyl_0'
p1966
I1995
sS'mcrwEp_0'
p1967
I1996
sS'{iqotiSAdiy~_2'
p1968
I1997
sS'mumotAz_1'
p1969
I1998
sS'{iqotiSAdiy~_1'
p1970
I1999
sS'AlIyAb_0'
p1971
I2000
sS'AlzwrAC_0'
p1972
I2001
sS'nabaTiy~_2'
p1973
I2002
sS'nabaTiy~_1'
p1974
I2003
sS'AlhAQlp_0'
p1975
I2004
sS'mujAwir_1'
p1976
I2005
sS'tHVyrA_0'
p1977
I2006
sS'52_0'
p1978
I2007
sS'AlqDAQy_0'
p1979
I2008
sS'AlsjnAC_0'
p1980
I2009
sS'j_1'
p1981
I2010
sS'murAd_2'
p1982
I2011
sS'malikap_1'
p1983
I2012
sS'SuEuwbap_1'
p1984
I2014
sS'munAwarap_1'
p1985
I2015
sS'mAw_1'
p1986
I2016
sS'mukal~af_1'
p1987
I6051
sS'EAdap_1'
p1988
I2017
sS'Sadomap_1'
p1989
I2018
sS'taHad~uv_1'
p1990
I2019
sS'ynfVwn_0'
p1991
I2020
sS'naqodiy~_1'
p1992
I2021
sS'kaviyf_1'
p1993
I2022
sS'riHolap_1'
p1994
I2023
sS'Oydt_0'
p1995
I2024
sS'bnAWhA_0'
p1996
I2025
sS'85_17_0'
p1997
I7195
sS'1992_0'
p1998
I2026
sS'AlVAt_0'
p1999
I2027
sS'nuqolap_1'
p2000
I4343
sS'maEozil_1'
p2001
I2029
sS'kasor_1'
p2002
I2030
sS'wOylwl_0'
p2003
I2031
sS'Hajar_1'
p2004
I2032
sS'qitAliy~_1'
p2005
I2033
sS'lbdC_0'
p2006
I2034
sS'{inodafaE_1'
p2007
I2035
sS'Dam~_1'
p2008
I2036
sS'crdm_0'
p2009
I2037
sS'OVrbyjAn_0'
p2010
I2038
sS'kAnuw_1'
p2011
I2039
sS'dam_1'
p2012
I2040
sS'cbAb_0'
p2013
I2041
sS'1962_0'
p2014
I337
sS'{inofiSAliy~_1'
p2015
I2043
sS'lInhAC_0'
p2016
I2044
sS'hanodasap_1'
p2017
I2045
sS'{iEotazal_1'
p2018
I2046
sS'IntAj_0'
p2019
I2047
sS'OVyEt_0'
p2020
I2048
sS'{inotisAb_1'
p2021
I2049
sS'cklthA_0'
p2022
I2050
sS'wtcyr_0'
p2023
I2051
sS'AlIlktrwny_0'
p2024
I2052
sS'1955_0'
p2025
I2053
sS'ytmcY_0'
p2026
I2054
sS'AlqDAQyp_0'
p2027
I5463
sS'kAmil_1'
p2028
I2056
sS'rAsiy_1'
p2029
I2057
sS'OTlqwA_0'
p2030
I2058
sS'fOsEAr_0'
p2031
I2059
sS'Sad~ar_1'
p2032
I2060
sS'jihAz_1'
p2033
I2061
sS'talofazap_1'
p2034
I2062
sS'taEoZiym_1'
p2035
I2063
sS'Omynp_0'
p2036
I2064
sS'mamonuwH_1'
p2037
I2911
sS'fAQD_0'
p2038
I2066
sS'{imotilAk_1'
p2039
I2067
sS'Hajom_1'
p2040
I2068
sS'AlInsAnyp_0'
p2041
I2069
sS'nVhb_0'
p2042
I2070
sS'najAH_1'
p2043
I2071
sS'{iqotarab_1'
p2044
I2072
sS'AlEAQlyp_0'
p2045
I2073
sS'habA-u_1'
p2046
I2074
sS'sAHil_2'
p2047
I2075
sS'ynfV_0'
p2048
I2076
sS'wVkAQhA_0'
p2049
I2077
sS'laqab_1'
p2050
I2078
sS'lOnh_0'
p2051
I2079
sS'mylAn_1'
p2052
I2080
sS'OwAmr_0'
p2053
I377
sS'bOxrY_0'
p2054
I1615
sS'taromiym_1'
p2055
I2083
sS'taHaq~aq_1'
p2056
I2085
sS'AlqrMn_0'
p2057
I2086
sS'bAHap_1'
p2058
I2087
sS'lqACAth_0'
p2059
I2088
sS'taHar~ur_1'
p2060
I2089
sS'sabab_1'
p2061
I2090
sS'muHiyT_2'
p2062
I2091
sS'swC_0'
p2063
I2092
sS'ytrcH_0'
p2064
I2093
sS'siEor_1'
p2065
I2094
sS'wncr_0'
p2066
I2095
sS'ruwdoriyjiyz_1'
p2067
I2096
sS'watiyrap_1'
p2068
I5467
sS'musotaqil~_1'
p2069
I2098
sS'ruwk_1'
p2070
I2099
sS'jiyruwm_1'
p2071
I2100
sS'OxTr_0'
p2072
I2101
sS'jaraH-a_1'
p2073
I2102
sS'gaT~-u_1'
p2074
I2103
sS'AlcAHnp_0'
p2075
I2104
sS'OsAsA_0'
p2076
I6890
sS'HuDuwr_1'
p2077
I2105
sS'saqof_1'
p2078
I2106
sS'munotahiy_1'
p2079
I2107
sS'AlrQysy_0'
p2080
I2108
sS'350_0'
p2081
I2109
sS'lOsEAr_0'
p2082
I2110
sS'Oyp_0'
p2083
I2111
sS'muEotaqal_2'
p2084
I1623
sS'raw~aj_1'
p2085
I2113
sS'wAlwfAC_0'
p2086
I2114
sS'waTan_2'
p2087
I2115
sS'waTan_1'
p2088
I2116
sS'qudAmaY_1'
p2089
I2117
sS'jzAC_0'
p2090
I2118
sS'muHiq~_1'
p2091
I2119
sS'mcAwrAth_0'
p2092
I2120
sS'bOydyhm_0'
p2093
I2121
sS'wAlOdb_0'
p2094
I2122
sS'yuwsif_1'
p2095
I2123
sS'Eadad_1'
p2096
I2124
sS'buwtiyn_1'
p2097
I2125
sS'AlcEbyp_0'
p2098
I4204
sS'biyl_1'
p2099
I2127
sS'llOmyr_0'
p2100
I4824
sS'Euqob_1'
p2101
I2129
sS'Im_0'
p2102
I2130
sS'Eayon_2'
p2103
I2131
sS'Eayon_1'
p2104
I2132
sS'nazih_1'
p2105
I2133
sS'fAris_1'
p2106
I2134
sS'safiynap_1'
p2107
I2135
sS'IdwArd_0'
p2108
I2136
sS'Ml_0'
p2109
I981
sS'{isom_1'
p2110
I2138
sS'Oss_0'
p2111
I2139
sS'wOErbwA_0'
p2112
I2140
sS'AlmnAqcAt_0'
p2113
I6781
sS'bAlISAbp_0'
p2114
I2142
sS'Hilof_1'
p2115
I6782
sS'tikonuwluwjiyA_1'
p2116
I2143
sS'bay~inap_1'
p2117
I2144
sS'AlkVb_0'
p2118
I2145
sS'Oylwl_0'
p2119
I2146
sS'ruwayod_1'
p2120
I4899
sS'tawaj~ah_1'
p2121
I2148
sS'sayor_1'
p2122
I2149
sS'mEAycp_0'
p2123
I1920
sS'AlcrkAC_0'
p2124
I2150
sS'Owr_0'
p2125
I2151
sS'ITlAqhA_0'
p2126
I2152
sS'taEoqiym_1'
p2127
I2153
sS'tadaf~uq_1'
p2128
I2154
sS'zAr-u_1'
p2129
I2155
sS'frAnokuw_1'
p2130
I2156
sS'tasoliym_1'
p2131
I2157
sS'MnVAk_0'
p2132
I2158
sS'qaliyl_1'
p2133
I2159
sS'tafowiyD_1'
p2134
I2160
sS'mar~ag_1'
p2135
I2161
sS'qurAbap_1'
p2136
I2162
sS'AlOsAs_0'
p2137
I2164
sS'mAriq_1'
p2138
I2165
sS'maSorifiy~_1'
p2139
I2166
sS'Eadam_1'
p2140
I2167
sS'{isotiTolAE_1'
p2141
I2168
sS'layosa_1'
p2142
I2169
sS'Hakam-u_1'
p2143
I2170
sS'cTryn_0'
p2144
I2171
sS'tcn_0'
p2145
I2172
sS'ISAbthm_0'
p2146
I2173
sS'TAQrAt_0'
p2147
I2174
sS'sycArk_0'
p2148
I2175
sS'muholap_1'
p2149
I2176
sS'hAnuwy_1'
p2150
I2177
sS'OHrzt_0'
p2151
I2178
sS'yuwnoskuwm_1'
p2152
I2179
sS'Harob_1'
p2153
I2180
sS'Ean~Abap_1'
p2154
I2181
sS'buwsoTun_1'
p2155
I353
sS'kAzAxostAn_1'
p2156
I2183
sS'liybirAliy~_1'
p2157
I2184
sS'mstcAr_0'
p2158
I2185
sS'jaboriy~_1'
p2159
I2186
sS'miyzAniy~ap_1'
p2160
I2187
sS'wmWAzrA_0'
p2161
I2188
sS'fanAr_1'
p2162
I2189
sS'biyriyz_1'
p2163
I2190
sS'liwiynosokiy_1'
p2164
I2191
sS'baladiy~_1'
p2165
I2192
sS'Haroq_1'
p2166
I2193
sS'thmyc_0'
p2167
I2194
sS'tuwriynuw_1'
p2168
I2195
sS'crHA_0'
p2169
I5166
sS'Owty_0'
p2170
I2197
sS'IrhAbyyn_0'
p2171
I2198
sS'tahaj~um_1'
p2172
I2199
sS'muqad~im_1'
p2173
I1637
sS'>awoqaf_1'
p2174
I2201
sS'AlIntrnt_0'
p2175
I2202
sS'wAlcrq_0'
p2176
I2203
sS'OrD_0'
p2177
I2204
sS'taqATuE_1'
p2178
I2205
sS'DaHiy~ap_1'
p2179
I2206
sS'Alcwf_0'
p2180
I5608
sS'vugorap_1'
p2181
I2207
sS'cdyd_0'
p2182
I2208
sS'sAhir_1'
p2183
I2209
sS'rAdAr_1'
p2184
I2210
sS'suhayol_1'
p2185
I2211
sS'AldAQmp_0'
p2186
I2212
sS'majal~ap_1'
p2187
I2213
sS'part_det'
p2188
I5635
sS'AlcEr_0'
p2189
I2214
sS'In_0'
p2190
I2215
sS'ncO_0'
p2191
I2216
sS'Tay~ib_1'
p2192
I2217
sS'Tay~ib_2'
p2193
I2218
sS'midofaEiy~_1'
p2194
I2219
sS'taxoriyb_1'
p2195
I746
sS'msWwl_0'
p2196
I2220
sS'tcyr_0'
p2197
I2221
sS'daHor_1'
p2198
I2222
sS'balad_1'
p2199
I2223
sS'hitolar_1'
p2200
I2224
sS'ttOxr_0'
p2201
I2225
sS'89_0'
p2202
I2226
sS'AlndACAt_0'
p2203
I2227
sS'AlkWws_0'
p2204
I2228
sS'cnjw_0'
p2205
I2229
sS'33.23_0'
p2206
I2230
sS'ltOkyd_0'
p2207
I2231
sS'AlTAQrAt_0'
p2208
I2233
sS'Hulom_1'
p2209
I2234
sS'HAl_1'
p2210
I2235
sS'AlgVAC_0'
p2211
I5385
sS'AlsAQH_0'
p2212
I7444
sS'Hawozap_1'
p2213
I2238
sS'mntcrp_0'
p2214
I2239
sS'fbAlIDAfp_0'
p2215
I2240
sS'{inotiZAm_1'
p2216
I2241
sS'tajAwab_1'
p2217
I6796
sS'{inobagaY_1'
p2218
I2243
sS'HifoZ_1'
p2219
I2244
sS'cAhyn_0'
p2220
I2245
sS'xiTAb_1'
p2221
I2246
sS'sijon_1'
p2222
I7248
sS'riykir_1'
p2223
I2247
sS'EAhil_1'
p2224
I2248
sS'AlmstcfY_0'
p2225
I2249
sS'AlmsOlp_0'
p2226
I2250
sS'mujan~ad_1'
p2227
I2251
sS'mubak~ir_1'
p2228
I2252
sS'misokiyn_1'
p2229
I2253
sS'duwnum_1'
p2230
I2254
sS'HaDAriy~_1'
p2231
I2255
sS'muwjib_1'
p2232
I2256
sS'80_0'
p2233
I2257
sS'qAhirap_1'
p2234
I2258
sS'wyVkr_0'
p2235
I5551
sS'mWkdA_0'
p2236
I2260
sS'mugAdarap_1'
p2237
I2261
sS'lajonap_1'
p2238
I2262
sS'AlTAQf_0'
p2239
I2264
sS'AlOrmlp_0'
p2240
I2265
sS'IydywlwjythA_0'
p2241
I2266
sS'muEotabir_1'
p2242
I1646
sS'mutajal~iy_1'
p2243
I2268
sS'mutafaj~ir_1'
p2244
I2269
sS'AltEAyc_0'
p2245
I2270
sS'biDoE_1'
p2246
I2271
sS'bVbHh_0'
p2247
I2272
sS'HVr_0'
p2248
I2274
sS'>aloyas_1'
p2249
I4227
sS'wOfAdt_0'
p2250
I2276
sS'OfyntAxAdw_0'
p2251
I2277
sS'Oglb_0'
p2252
I2278
sS'saliyl_1'
p2253
I2279
sS'Eaziyz_1'
p2254
I2280
sS'noun_prop'
p2255
I60
sS'Siyniy~_1'
p2256
I2281
sS'bador_1'
p2257
I2282
sS'ITfAC_0'
p2258
I2283
sS'wAlnAQbyn_0'
p2259
I2284
sS'OrqAm_0'
p2260
I2285
sS'Oryd_0'
p2261
I2286
sS'{isotijAbap_1'
p2262
I2287
sS'wmsWwlyn_0'
p2263
I2288
sS'zawojiy~_1'
p2264
I2289
sS'nEyc_0'
p2265
I2290
sS'muDiyf_1'
p2266
I2291
sS'msWwlA_0'
p2267
I2292
sS'yuwfinotuws_1'
p2268
I2293
sS'brQAsp_0'
p2269
I2294
sS'qaSor_1'
p2270
I2295
sS'baEolabak~_1'
p2271
I2296
sS'xitAm_1'
p2272
I2297
sS'tamAs~_2'
p2273
I2298
sS'giyAbiy~_1'
p2274
I2299
sS'dawoliy~_1'
p2275
I2300
sS'OsQlp_0'
p2276
I2301
sS'jAnibiy~_1'
p2277
I369
sS'taEAmul_1'
p2278
I2303
sS'musAwAp_1'
p2279
I2304
sS'Eal~aq_1'
p2280
I1655
sS'AlOmtAr_0'
p2281
I2306
sS'taEad~aY_1'
p2282
I2307
sS'faranosiy~_1'
p2283
I2308
sS'kOnY_0'
p2284
I2309
sS'{inotamaY_1'
p2285
I2310
sS'conj'
p2286
I450
sS'saboEiyn_1'
p2287
I2311
sS'manoSuwrap_1'
p2288
I372
sS'EalAqap_1'
p2289
I2313
sS'rAbiE_1'
p2290
I2314
sS'OwSl_0'
p2291
I2315
sS'AlInqAV_0'
p2292
I2316
sS'tftyc_0'
p2293
I2317
sS'llIzEAj_0'
p2294
I2318
sS'{iqotirAH_1'
p2295
I2319
sS'vamAniyn_1'
p2296
I6807
sS'DiloE_1'
p2297
I2320
sS'bmcArkp_0'
p2298
I2321
sS'fahod_1'
p2299
I2322
sS'Omny_0'
p2300
I2323
sS'wynAqc_0'
p2301
I2324
sS'wOdwAt_0'
p2302
I2325
sS'jawolap_1'
p2303
I2326
sS'mak~iy~_2'
p2304
I2328
sS'wOwqfth_0'
p2305
I2329
sS'nhAQy_0'
p2306
I2330
sS'IqlAEhA_0'
p2307
I6809
sS'IlgAC_0'
p2308
I2332
sS'taSad~iy_1'
p2309
I2333
sS'TabaE-a_1'
p2310
I2334
sS'OncQ_0'
p2311
I2335
sS'DariyH_1'
p2312
I2336
sS'wAlOmyrky_0'
p2313
I2337
sS'lnnAqc_0'
p2314
I2338
sS'tAbaE_1'
p2315
I2339
sS'qab~An_1'
p2316
I2340
sS'{isotivomAr_2'
p2317
I2163
sS'{isotivomAr_1'
p2318
I2342
sS'OslHthA_0'
p2319
I2343
sS'AlfDAQyAt_0'
p2320
I2344
sS'Alchr_0'
p2321
I2345
sS'mumotalakAt_1'
p2322
I2346
sS'jadiyr_2'
p2323
I2347
sS'bat~_1'
p2324
I2348
sS'wOrsnAl_0'
p2325
I2349
sS'kAsiH_1'
p2326
I2350
sS'llqDAC_0'
p2327
I2351
sS'AlOnjE_0'
p2328
I4246
sS'llIbdAE_0'
p2329
I2353
sS'tarotiyb_1'
p2330
I2354
sS'wAlrQys_0'
p2331
I2355
sS'OsbwEyp_0'
p2332
I2356
sS'xatam-i_1'
p2333
I2357
sS'TAlibAn_1'
p2334
I2358
sS'chwAn_0'
p2335
I2359
sS'bAsil_1'
p2336
I2360
sS'AlqArQ_0'
p2337
I2361
sS'>adoraj_1'
p2338
I2964
sS'{irotifAE_1'
p2339
I2363
sS'tVkr_0'
p2340
I2364
sS'tafaq~ad_1'
p2341
I2365
sS'Olfy_0'
p2342
I2366
sS'dilogAduw_1'
p2343
I2367
sS'Husayon_1'
p2344
I2368
sS'mwAnQ_0'
p2345
I2369
sS'fiyfA_1'
p2346
I2370
sS'Ealiy~_2'
p2347
I2371
sS'bhdwC_0'
p2348
I2372
sS'mbAcrp_0'
p2349
I2373
sS'{iEotirAf_1'
p2350
I4252
sS'OvnY_0'
p2351
I2376
sS'wOwqft_0'
p2352
I2377
sS'yWdy_0'
p2353
I2378
sS'baHav-a_1'
p2354
I2379
sS'jaEal-a_1'
p2355
I2380
sS'muwASalap_1'
p2356
I2381
sS'OmyrkA_0'
p2357
I2382
sS'myncw_0'
p2358
I2383
sS'SabAH_2'
p2359
I7584
sS'zAd_1'
p2360
I2384
sS'wifAq_1'
p2361
I6822
sS'SidAm_1'
p2362
I2385
sS'ruwmA_1'
p2363
I2386
sS'qudosiy~_3'
p2364
I390
sS'yckl_0'
p2365
I2388
sS'qaSorap_1'
p2366
I2389
sS'xalaq-u_1'
p2367
I7597
sS'lhyQp_0'
p2368
I2390
sS'wncrhA_0'
p2369
I1677
sS'Ondrw_0'
p2370
I2392
sS'InjAH_0'
p2371
I2393
sS'najiyb_1'
p2372
I2394
sS'wkcf_0'
p2373
I2395
sS'takotiyk_1'
p2374
I2972
sS'Hulow_1'
p2375
I4255
sS'rcAwy_0'
p2376
I2398
sS'AlAntmAC_0'
p2377
I2399
sS'wHqAQb_0'
p2378
I6825
sS'muqotaniE_1'
p2379
I2401
sS'fahim-a_1'
p2380
I2402
sS'EAyan_1'
p2381
I2403
sS'Tiylapa_1'
p2382
I2404
sS'zEmAChm_0'
p2383
I2405
sS'sAjid_2'
p2384
I1426
sS'bytr_1'
p2385
I2407
sS'VkrY_0'
p2386
I2409
sS'tawASal_1'
p2387
I2410
sS'xalofiy~ap_1'
p2388
I2411
sS'Dimon_1'
p2389
I4258
sS'taqoliyS_1'
p2390
I2412
sS'{isotiEorAD_1'
p2391
I2413
sS'rOY_0'
p2392
I2414
sS'tawaq~af_1'
p2393
I2415
sS'sinodiyAn_1'
p2394
I2416
sS'Onwr_0'
p2395
I2417
sS'hunAka_1'
p2396
I2418
sS'wOHyAC_0'
p2397
I2419
sS'niyAbiy~_1'
p2398
I2420
sS'TalAl_1'
p2399
I2421
sS'fatoH_2'
p2400
I2422
sS'fatoH_1'
p2401
I2423
sS'OnTwnyws_0'
p2402
I2424
sS'SAr_1'
p2403
I2425
sS'Tariyqap_1'
p2404
I2426
sS'munoSarim_1'
p2405
I2427
sS'dawoHap_1'
p2406
I2428
sS'hVh_0'
p2407
I2429
sS'Eamorw_1'
p2408
I5527
sS'muHASar_1'
p2409
I2431
sS'Hab~_1'
p2410
I2432
sS'tOvyr_0'
p2411
I2433
sS'malik_2'
p2412
I2434
sS'Tuwmiy_1'
p2413
I2435
sS'AlATmQnAn_0'
p2414
I2436
sS'{it~ajah_1'
p2415
I2437
sS'wOSbH_0'
p2416
I2438
sS'basam-i_1'
p2417
I2439
sS'AlOwlwyAt_0'
p2418
I5552
sS'Ecrp_0'
p2419
I2440
sS'>aHomar_2'
p2420
I2441
sS'IkbAr_0'
p2421
I2443
sS'SanaE-a_1'
p2422
I2444
sS'muloHaq_1'
p2423
I2445
sS'mcklp_0'
p2424
I2446
sS'muloHaq_2'
p2425
I2447
sS'Dam~-u_1'
p2426
I2448
sS'daHalAn_1'
p2427
I2387
sS'HaSal-u_1'
p2428
I2449
sS'Ondyp_0'
p2429
I2450
sS'AlIyrAnyp_0'
p2430
I2451
sS'tasan~aY_1'
p2431
I5532
sS'wOsEd_0'
p2432
I2453
sS'wnAcd_0'
p2433
I2454
sS'tajomiyd_1'
p2434
I1687
sS'AljzAQr_0'
p2435
I2457
sS'Osywy_0'
p2436
I2458
sS'24_0'
p2437
I2459
sS'banaY-i_1'
p2438
I2460
sS'muSAb_1'
p2439
I2461
sS'wAlcrkAt_0'
p2440
I2462
sS'{ifotiqAd_1'
p2441
I2463
sS'AlOmd_0'
p2442
I6837
sS'wrc_0'
p2443
I2465
sS'tanosiyqiy~_1'
p2444
I2466
sS'MxrAn_0'
p2445
I2467
sS'taTAbaq_1'
p2446
I2468
sS'Oqrb_0'
p2447
I2469
sS'muEAqib_1'
p2448
I2470
sS'Okd_0'
p2449
I2471
sS'AlOndyp_0'
p2450
I5021
sS'HamAsap_1'
p2451
I2473
sS'mayol_1'
p2452
I2474
sS'Sam~am_1'
p2453
I2475
sS'70_0'
p2454
I2476
sS'Zabiy_1'
p2455
I2477
sS'cmlt_0'
p2456
I2478
sS'OEwAm_0'
p2457
I1694
sS'5_3_0'
p2458
I6490
sS'EAm_1'
p2459
I2480
sS'Oqsm_0'
p2460
I2481
sS'sAkin_1'
p2461
I2482
sS'Eamal_2'
p2462
I2483
sS'Eamal_1'
p2463
I2484
sS'AlbyDAC_0'
p2464
I2485
sS'IlyzAbyv_0'
p2465
I2486
sS'{isotaDAf_1'
p2466
I407
sS'najomap_1'
p2467
I2488
sS'najomap_2'
p2468
I2489
sS'jas~ad_1'
p2469
I2490
sS'OkwA_0'
p2470
I3006
sS'tajam~ad_1'
p2471
I2491
sS'AlhdwC_0'
p2472
I2492
sS'munotij_1'
p2473
I2493
sS'lAtiyniy~_1'
p2474
I2494
sS'mcrf_0'
p2475
I2495
sS'OqAmh_0'
p2476
I2496
sS'Tawiyl_1'
p2477
I2497
sS'{inosal~_1'
p2478
I2498
sS'yin_1'
p2479
I2499
sS'fAyiz_1'
p2480
I2500
sS'tanoZiyf_1'
p2481
I2501
sS'InjAz_0'
p2482
I2502
sS'{ixotalaT_1'
p2483
I2503
sS'tanAwal_1'
p2484
I2504
sS'79_0'
p2485
I2505
sS'293_0'
p2486
I2506
sS'ntAQjhA_0'
p2487
I2507
sS'Damiyr_1'
p2488
I2508
sS'TAbiq_1'
p2489
I2509
sS'AlIgrAq_0'
p2490
I2510
sS'llrQys_0'
p2491
I2511
sS'AlOymn_0'
p2492
I2513
sS'Actrt_0'
p2493
I2514
sS'ITrAC_0'
p2494
I2515
sS'tasal~um_1'
p2495
I2516
sS'bIqAmp_0'
p2496
I2517
sS'wncrt_0'
p2497
I2518
sS'qawiy~_1'
p2498
I2519
sS'Huj~ap_2'
p2499
I2520
sS'Huj~ap_1'
p2500
I2521
sS'wOwrdt_0'
p2501
I2522
sS'?_0'
p2502
I2523
sS'AllVyn_0'
p2503
I2525
sS'115_21_0'
p2504
I2273
sS'ycAC_0'
p2505
I2526
sS'musAhim_1'
p2506
I2527
sS'mavAbap_1'
p2507
I2528
sS'taEAraD_1'
p2508
I2529
sS'fatAp_1'
p2509
I5548
sS'Oblgt_0'
p2510
I2531
sS'HaDar-u_1'
p2511
I2532
sS'EAriy_1'
p2512
I2533
sS'whVA_0'
p2513
I2534
sS'kulowap_1'
p2514
I2535
sS'wOwTAn_0'
p2515
I2536
sS'Owrwby_0'
p2516
I2537
sS'frAch_0'
p2517
I2538
sS'smAQh_0'
p2518
I2539
sS'januwbiy~_1'
p2519
I2540
sS'sAn_1'
p2520
I2541
sS'fawoz_1'
p2521
I2542
sS'Did~a_1'
p2522
I2543
sS'AlIqlAE_0'
p2523
I2544
sS'qirogiyzostAn_1'
p2524
I2545
sS'jiyriy~_1'
p2525
I2546
sS'{isotiqobAl_1'
p2526
I2547
sS'masoqaT_2'
p2527
I2548
sS'wOsfrt_0'
p2528
I2549
sS'masoqaT_1'
p2529
I2550
sS'faxoriy~_1'
p2530
I2551
sS'AlcEby_0'
p2531
I2553
sS'bOn_0'
p2532
I2554
sS'1972_0'
p2533
I2555
sS'naZar_1'
p2534
I2556
sS'taxoTiyT_1'
p2535
I2557
sS'AlckwY_0'
p2536
I2558
sS'OEdm_0'
p2537
I2559
sS'vukonap_1'
p2538
I2560
sS'hAmobuwrog_1'
p2539
I2561
sS'saloTanap_1'
p2540
I2562
sS'{ifotaraD_1'
p2541
I2563
sS'musaj~al_1'
p2542
I2564
sS'Earaf-i_1'
p2543
I2565
sS'AlOwlmby_0'
p2544
I2566
sS'ruwsiy~_1'
p2545
I2567
sS'OSdqACh_0'
p2546
I2568
sS'wusoE_1'
p2547
I2569
sS'193_0'
p2548
I2570
sS'AlOmyrkyp_0'
p2549
I2571
sS'wcrAQHh_0'
p2550
I2572
sS'AlIjrAC_0'
p2551
I2573
sS'AstOvrt_0'
p2552
I2574
sS'AlOxyrp_0'
p2553
I2575
sS'05_4_0'
p2554
I2897
sS'taEoliym_1'
p2555
I2576
sS'm_1'
p2556
I2577
sS'knqbAC_0'
p2557
I2578
sS'AlrQAsp_0'
p2558
I2579
sS'wisATap_1'
p2559
I2580
sS'AlktAQb_0'
p2560
I2581
sS'tawojiyh_1'
p2561
I2582
sS'67_0'
p2562
I2583
sS'maHomiy~_1'
p2563
I5562
sS'Habol_1'
p2564
I2585
sS'juwluw_1'
p2565
I3008
sS'xayorAllh_1'
p2566
I2587
sS'qAEap_1'
p2567
I2588
sS'muEaz~iy_1'
p2568
I2589
sS'AlOmyrkyyn_0'
p2569
I2590
sS'AlOEdAC_0'
p2570
I2591
sS'balag-u_1'
p2571
I2593
sS'turokiy~_1'
p2572
I4288
sS'wODAf_0'
p2573
I1715
sS'tarojiyH_1'
p2574
I2596
sS'wOHrzt_0'
p2575
I2597
sS'gaTorasap_1'
p2576
I2598
sS'maroEiy~_1'
p2577
I2599
sS'blAntycn_0'
p2578
I2600
sS'AlOngwly_0'
p2579
I2601
sS'{iHotakam_1'
p2580
I2602
sS'bOSwAthm_0'
p2581
I6860
sS'maqAl_1'
p2582
I2604
sS'tamohiydiy~_1'
p2583
I2605
sS'wltcArk_0'
p2584
I2606
sS'AlnhAQyp_0'
p2585
I2607
sS'ISdArh_0'
p2586
I2608
sS'AlmWlm_0'
p2587
I2609
sS'tcgyly_0'
p2588
I1321
sS'wOstAV_0'
p2589
I2611
sS'7.5_0'
p2590
I2612
sS'xayomap_1'
p2591
I2613
sS'muSag~ar_1'
p2592
I99
sS'AldAQr_0'
p2593
I2615
sS'tckyl_0'
p2594
I2616
sS'wadaE-a_1'
p2595
I2617
sS'silomiy~_1'
p2596
I2618
sS'0.9_0'
p2597
I4240
sS'xj'
p2598
I118
sS'layoliy~_1'
p2599
I2620
sS'nmwVj_0'
p2600
I2621
sS'bagodAd_1'
p2601
I2622
sS'xm'
p2602
I3
sS'xc'
p2603
I10
sS'xa'
p2604
I17
sS'xf'
p2605
I9
sS'xg'
p2606
I123
sS'xd'
p2607
I20
sS'wAlOwlwyAt_0'
p2608
I2623
sS'xy'
p2609
I7
sS'xs'
p2610
I4
sS'xp'
p2611
I16
sS'waHodawiy~_1'
p2612
I2624
sS'xaS~aS_1'
p2613
I6866
sS'xu'
p2614
I6
sS'tMt_0'
p2615
I2626
sS'AlOjwbp_0'
p2616
I2627
sS'mWtmr_0'
p2617
I2628
sS'riwAyap_1'
p2618
I2629
sS'diysamobir_1'
p2619
I2630
sS'tnfyV_0'
p2620
I2631
sS'x*'
p2621
I1992
sS'miyuwniyx_1'
p2622
I239
sS'Sayof_1'
p2623
I2633
sS'AlIxAC_0'
p2624
I2634
sS'muEar~ib_1'
p2625
I2635
sS'x2'
p2626
I423
sS'x3'
p2627
I15
sS'x1'
p2628
I45
sS'bAriy_1'
p2629
I2636
sS'Husoniy_1'
p2630
I2637
sS'AlOlEAb_0'
p2631
I2638
sS'TaroH_1'
p2632
I2639
sS'naSoH_1'
p2633
I2640
sS'Sar~Af_1'
p2634
I292
sS'AswmA_1'
p2635
I2642
sS'OryHA_0'
p2636
I2643
sS'syWmn_0'
p2637
I2644
sS'sah~al_1'
p2638
I2645
sS'Obrz_0'
p2639
I2646
sS'baEoD_1'
p2640
I2647
sS'daw~ar_1'
p2641
I319
sS'kuwayotiy~_1'
p2642
I2649
sS'mubAdalap_1'
p2643
I2650
sS'rasom_1'
p2644
I2651
sS'taEAdal_1'
p2645
I2652
sS'xaloE_1'
p2646
I2653
sS'taDam~an_1'
p2647
I2654
sS'kayofa_1'
p2648
I2655
sS'zimAm_1'
p2649
I2656
sS'ksiyAmiyn_1'
p2650
I2657
sS'taHotu_1'
p2651
I2658
sS'>arojaE_1'
p2652
I2660
sS'takoriym_1'
p2653
I2661
sS'ygVy_0'
p2654
I2662
sS'>aqoniEap_1'
p2655
I2663
sS'OmA_0'
p2656
I2664
sS'sAQqyn_0'
p2657
I2665
sS'mArotiyniyz_1'
p2658
I2666
sS'mawosuwEap_1'
p2659
I2667
sS'AlOb_0'
p2660
I2668
sS'AlOrD_0'
p2661
I2669
sS'juwliy_1'
p2662
I2670
sS'salAm_1'
p2663
I2671
sS'juwE_1'
p2664
I7023
sS'wytOhl_0'
p2665
I2672
sS'mnAwcAt_0'
p2666
I2673
sS'rQys_0'
p2667
I4304
sS'SiyAgap_1'
p2668
I2675
sS'EiysaY_1'
p2669
I2676
sS'juv~ap_1'
p2670
I2677
sS'Omlh_0'
p2671
I2678
sS'HAsab_1'
p2672
I2679
sS'myxAQyl_0'
p2673
I2680
sS'tawoqiyE_1'
p2674
I2681
sS'junodiy~_1'
p2675
I2682
sS'Oqr_0'
p2676
I2683
sS'bOnh_0'
p2677
I2684
sS'SuloH_1'
p2678
I2685
sS'OrwAH_0'
p2679
I1737
sS'naZariy~ap_1'
p2680
I2687
sS'Eahod_1'
p2681
I2688
sS'zaraE-a_1'
p2682
I2689
sS'turAv_1'
p2683
I2690
sS'zafan-i_1'
p2684
I2691
sS'sanap_1'
p2685
I2692
sS'EbdAlIlh_0'
p2686
I2693
sS'{it~abaE_1'
p2687
I2694
sS'xasArap_1'
p2688
I2695
sS'munoEim_2'
p2689
I1740
sS'murAsil_1'
p2690
I2697
sS'AlOm_0'
p2691
I2698
sS'{irotibAT_1'
p2692
I2699
sS'{isotixodAm_1'
p2693
I2700
sS'2002_0'
p2694
I2701
sS'juwsobAn_1'
p2695
I2702
sS'buw_1'
p2696
I1173
sS'AlIHdY_0'
p2697
I2704
sS'EimAd_2'
p2698
I2705
sS'EimAd_1'
p2699
I2706
sS'xaliyf_1'
p2700
I2707
sS'badal_1'
p2701
I2708
sS'sAEid_1'
p2702
I2709
sS'{it~aDaH_1'
p2703
I2710
sS'qaTaE-a_1'
p2704
I2711
sS'sOfElh_0'
p2705
I2712
sS'AlImArAtyp_0'
p2706
I1886
sS'HawoD_1'
p2707
I2713
sS'AlcycAny_0'
p2708
I2714
sS'AlElmAC_0'
p2709
I2715
sS'muxad~ir_1'
p2710
I2716
sS'wAlISlAH_0'
p2711
I2717
sS'AlhwAC_0'
p2712
I2718
sS'mahArap_1'
p2713
I2719
sS'guwriyuwn_1'
p2714
I2720
sS'tarAjuE_1'
p2715
I768
sS'maEa_1'
p2716
I2722
sS'xalof_1'
p2717
I2723
sS'munaZ~im_1'
p2718
I2724
sS'Owbyk_0'
p2719
I2725
sS'AltcAWm_0'
p2720
I2726
sS'kuwfiy~_2'
p2721
I2727
sS'ycAr_0'
p2722
I2728
sS'Eilom_1'
p2723
I828
sS'Eilom_2'
p2724
I1601
sS'sul~am_1'
p2725
I2731
sS'Ochr_0'
p2726
I2732
sS'qalobiy~_1'
p2727
I2733
sS'OyAr_0'
p2728
I2734
sS'muHotal~_1'
p2729
I2735
sS'wAlsAQlp_0'
p2730
I2736
sS'Einod_1'
p2731
I892
sS'sikoritiyr_1'
p2732
I2738
sS'wAlMlAt_0'
p2733
I1832
sS'bAs-u_1'
p2734
I2739
sS'far~-i_1'
p2735
I2740
sS'AlOjnby_0'
p2736
I2741
sS'wIdwArdw_0'
p2737
I2742
sS'15_0'
p2738
I2743
sS'nAfas_1'
p2739
I2744
sS'EATifap_1'
p2740
I2745
sS'sAr-i_1'
p2741
I2746
sS'tamokiyn_1'
p2742
I6889
sS'AlxTO_0'
p2743
I2748
sS'AlOsbwE_0'
p2744
I2749
sS'wAlfyzyAC_0'
p2745
I2751
sS'wAlclAlAt_0'
p2746
I2752
sS'tawat~ur_1'
p2747
I2753
sS'malohaY_1'
p2748
I2754
sS'AlOrbE_0'
p2749
I2755
sS'mujAhid_1'
p2750
I1749
sS'dywrdyyfytc_0'
p2751
I2757
sS'AlwbAC_0'
p2752
I2758
sS'Hawol_1'
p2753
I2759
sS'mufaw~aDiy~ap_1'
p2754
I2760
sS'trOs_0'
p2755
I2761
sS'Omm_0'
p2756
I1017
sS'tafAdiy_1'
p2757
I2763
sS'EAdiy~_1'
p2758
I2764
sS'tamoriyn_1'
p2759
I2765
sS'qDAQy_0'
p2760
I2766
sS'OSwAt_0'
p2761
I2767
sS'jubon_2'
p2762
I2768
sS'biy_1'
p2763
I2769
sS'AlOTbAq_0'
p2764
I2770
sS'rabowap_1'
p2765
I1074
sS'tcArk_0'
p2766
I2772
sS'yawom_1'
p2767
I2773
sS'Eamaliy~ap_1'
p2768
I2774
sS'maEoriD_1'
p2769
I2775
sS'tawaj~uh_1'
p2770
I2776
sS'wOwstrAlyA_0'
p2771
I1108
sS'xaloq_1'
p2772
I2778
sS'mumArasap_1'
p2773
I1753
sS'hayokaliy~_1'
p2774
I2780
sS'mftcy_0'
p2775
I2781
sS'nAs_1'
p2776
I2782
sS'chwd_0'
p2777
I1142
sS'wujuwd_1'
p2778
I6893
sS'munAfasap_1'
p2779
I2785
sS'Iyhwd_0'
p2780
I2786
sS'faDiylap_1'
p2781
I2787
sS'whVh_0'
p2782
I1755
sS'OnAs_0'
p2783
I2788
sS'IfsAd_0'
p2784
I2789
sS'AlchrAlmADy_0'
p2785
I2790
sS'mutanaf~as_1'
p2786
I2791
sS'InnA_0'
p2787
I2792
sS'musotaqir~_2'
p2788
I2793
sS'musotaqir~_1'
p2789
I2794
sS'OHdAvh_0'
p2790
I2796
sS'sirob_1'
p2791
I2797
sS'cmwl_0'
p2792
I2798
sS'wAlcrTp_0'
p2793
I2799
sS'AlIfryqyp_0'
p2794
I2800
sS'Orykswn_0'
p2795
I2801
sS'mivol_1'
p2796
I2802
sS'OsrE_0'
p2797
I1759
sS'IstrAtyjyp_0'
p2798
I1319
sS'56_0'
p2799
I2805
sS'rQAsth_0'
p2800
I2806
sS'sawAd_1'
p2801
I2807
sS'faroz_1'
p2802
I2808
sS'{inotahaj_1'
p2803
I2809
sS'Osft_0'
p2804
I2810
sS'ragib-a_1'
p2805
I1347
sS'fiyrinok_1'
p2806
I2812
sS'1948_0'
p2807
I2813
sS'cOwhA_0'
p2808
I2814
sS'mcAkl_0'
p2809
I4617
sS'biyrnoz_1'
p2810
I2816
sS'AlEAQq_0'
p2811
I2817
sS'saEuwdiy~ap_1'
p2812
I2818
sS'taTowiyr_1'
p2813
I2819
sS'halaE_1'
p2814
I2820
sS'AlmcArkp_0'
p2815
I2821
sS'VAth_0'
p2816
I2822
sS'cAb_0'
p2817
I2823
sS'sariy_1'
p2818
I1470
sS'mutaTaw~iE_1'
p2819
I2825
sS'AlcArqp_0'
p2820
I2826
sS'faqaT_1'
p2821
I2827
sS'buruwz_1'
p2822
I2828
sS'nA}ib_1'
p2823
I2829
sS'mstcfY_0'
p2824
I6900
sS'AlIxwp_0'
p2825
I2831
sS'namosAwiy~_1'
p2826
I2832
sS'AlfQp_0'
p2827
I2833
sS'tabojiyl_1'
p2828
I2834
sS'buwroSap_1'
p2829
I2835
sS'sufuwr_1'
p2830
I2836
sS'wOElnt_0'
p2831
I2837
sS'jQnA_0'
p2832
I2838
sS'man_1'
p2833
I2839
sS'AlsyQp_0'
p2834
I2840
sS'yWmn_0'
p2835
I2841
sS'AlmrcHyn_0'
p2836
I2842
sS'rakaD-u_1'
p2837
I2843
sS'bin_2'
p2838
I2845
sS'bav~_1'
p2839
I2846
sS'wAlMn_0'
p2840
I2847
sS'sQl_0'
p2841
I2848
sS'AdAmytc_0'
p2842
I2849
sS'{inoxifAD_1'
p2843
I2850
sS'AlcfAC_0'
p2844
I1665
sS'zawaY-i_1'
p2845
I2852
sS'OEln_0'
p2846
I2853
sS'mazoraE_1'
p2847
I2854
sS'qal~-i_1'
p2848
I2855
sS'Earab_1'
p2849
I1720
sS'xafiyf_1'
p2850
I2857
sS'kuwiyt~A_1'
p2851
I2858
sS'bAlIDAfp_0'
p2852
I2860
sS'qanAp_1'
p2853
I2861
sS'gurofap_1'
p2854
I2862
sS'taqam~aS_1'
p2855
I2863
sS'>azoEaj_1'
p2856
I1815
sS'mutawaj~ih_1'
p2857
I2865
sS'AlnAQbp_0'
p2858
I2866
sS'AlISlAHy_0'
p2859
I2867
sS'nuqoTap_1'
p2860
I2868
sS'fan~_1'
p2861
I2869
sS'niyuwyuwrok_1'
p2862
I2870
sS'ObwjA_0'
p2863
I2871
sS'HAfaZ_1'
p2864
I2872
sS'kabiyr_1'
p2865
I2873
sS'majoraY_1'
p2866
I1863
sS'tazoyiyf_1'
p2867
I1865
sS'sOl_0'
p2868
I2876
sS'bilojiykiy~_1'
p2869
I2877
sS'wIVA_0'
p2870
I2878
sS'nuhuwD_1'
p2871
I2879
sS'AlOlmAny_0'
p2872
I2880
sS'HaziyrAn_1'
p2873
I1772
sS'AlctAC_0'
p2874
I2882
sS'jwrdAn_1'
p2875
I1918
sS'Halam-u_1'
p2876
I2884
sS'bIEdAd_0'
p2877
I2885
sS'yuwruw_1'
p2878
I2886
sS'Alcmry_0'
p2879
I2887
sS'{isotinokAr_1'
p2880
I2888
sS'tawaH~ud_1'
p2881
I2889
sS'TayarAn_1'
p2882
I4345
sS'bdOt_0'
p2883
I2891
sS'jAkArotA_1'
p2884
I2892
sS'Sad~Am_1'
p2885
I2893
sS'ObdA_0'
p2886
I2894
sS'OnAbyb_0'
p2887
I2895
sS'tarad~ad_1'
p2888
I2896
sS'30_22_0'
p2889
I1250
sS'AlbdC_0'
p2890
I2898
sS'siyAsiy~_1'
p2891
I2899
sS'siyAsiy~_2'
p2892
I2900
sS'nhAQyA_0'
p2893
I1993
sS'suwniyA_1'
p2894
I6913
sS'{iEotizAl_1'
p2895
I2903
sS'manoHaY_1'
p2896
I2904
sS'wODAft_0'
p2897
I2905
sS'{ibotaz~_1'
p2898
I2906
sS'Mmnp_0'
p2899
I4348
sS'HAwal_1'
p2900
I2908
sS'AlOwlY_0'
p2901
I1775
sS'raHim_1'
p2902
I1076
sS'AlVEr_0'
p2903
I4892
sS'taSodiyq_1'
p2904
I2065
sS'salafiy~ap_1'
p2905
I2912
sS'verb'
p2906
I14
sS'hubuwb_1'
p2907
I2913
sS'tamak~an_1'
p2908
I4349
sS'jyms_1'
p2909
I2915
sS'wrAC_0'
p2910
I2916
sS'AlmnAwQwn_0'
p2911
I2917
sS'mAyokil_1'
p2912
I2918
sS'AstvnAQyyn_0'
p2913
I2919
sS'{isotirodAd_1'
p2914
I3060
sS'fAjobAyiy_1'
p2915
I2921
sS'cgwf_0'
p2916
I2922
sS'rajul_1'
p2917
I2923
sS'Hidap_1'
p2918
I2924
sS'ruwzonAmap_1'
p2919
I2925
sS'HAdiv_1'
p2920
I2926
sS'SAliH_1'
p2921
I2927
sS'SAliH_4'
p2922
I2928
sS'mutAH_1'
p2923
I2929
sS'bAlVAt_0'
p2924
I2930
sS'nAcTA_0'
p2925
I2931
sS'kawokab_1'
p2926
I2932
sS'OmAkn_0'
p2927
I2933
sS'TArid_1'
p2928
I2934
sS'wAlOml_0'
p2929
I2935
sS'Mxrwn_0'
p2930
I2936
sS'{ilotiHAm_1'
p2931
I2937
sS'tAyoluwr_1'
p2932
I2938
sS'llcErAC_0'
p2933
I2939
sS'qiS~ap_1'
p2934
I2940
sS'cbh_0'
p2935
I2941
sS'guwAtiymAlA_1'
p2936
I2942
sS'naqoS_1'
p2937
I2943
sS'riyADap_1'
p2938
I2944
sS'IjrACAt_0'
p2939
I2945
sS'IEdAd_0'
p2940
I2946
sS'Hinov_1'
p2941
I2947
sS'MtyA_0'
p2942
I2948
sS'zmlAQh_0'
p2943
I2949
sS'rAwanod_1'
p2944
I2950
sS'kluwd_1'
p2945
I2951
sS'AltEVyb_0'
p2946
I2952
sS'bwyz_1'
p2947
I2953
sS'tazAmun_1'
p2948
I2954
sS'HaSar-iu_1'
p2949
I2955
sS'sAHiq_1'
p2950
I2956
sS'li_1'
p2951
I2957
sS'tWdy_0'
p2952
I2958
sS'Eam~Ar_1'
p2953
I2959
sS'sAraE_1'
p2954
I5623
sS'mudar~ib_1'
p2955
I2961
sS'OHdhmA_0'
p2956
I2962
sS'crwdr_0'
p2957
I2963
sS'90_0'
p2958
I2362
sS'msOlp_0'
p2959
I2965
sS'Vnwby_0'
p2960
I2966
sS'sanawiy~_1'
p2961
I2967
sS'wbhVA_0'
p2962
I6922
sS'xuwsiyh_1'
p2963
I2969
sS'AlOwrwbyp_0'
p2964
I5624
sS'cOnh_0'
p2965
I2971
sS'mulAHaZap_1'
p2966
I2396
sS'lAguws_1'
p2967
I2973
sS'AlbActwn_0'
p2968
I2975
sS'faxAmap_2'
p2969
I2976
sS'SAdiq_1'
p2970
I6923
sS'jurovuwm_1'
p2971
I4354
sS'wtWkd_0'
p2972
I2979
sS'IEdAm_0'
p2973
I2980
sS'xaf~aD_1'
p2974
I2981
sS'Owgwr_0'
p2975
I2982
sS'wnhAQy_0'
p2976
I2983
sS'jAz_3'
p2977
I2984
sS'AlIrAdp_0'
p2978
I2985
sS'bITlAq_0'
p2979
I2986
sS'firAr_1'
p2980
I2987
sS'OmsyAt_0'
p2981
I2988
sS'kif~ap_1'
p2982
I4654
sS'AlwqAQE_0'
p2983
I2990
sS'AlTAQfp_0'
p2984
I2991
sS'lltVwq_0'
p2985
I2992
sS'buwlotuwn_1'
p2986
I2993
sS'qatal-u_1'
p2987
I2994
sS'OSHAb_0'
p2988
I2996
sS'muwsaY_1'
p2989
I1794
sS'marad-u_1'
p2990
I2998
sS'diymuwqrATiy~ap_1'
p2991
I2999
sS'OydnA_0'
p2992
I3000
sS'AlAEtdAC_0'
p2993
I3001
sS'kuwriyA_1'
p2994
I3002
sS'kuruwAtiyA_1'
p2995
I3003
sS'wOSdqAQhm_0'
p2996
I3004
sS'qAd-u_1'
p2997
I3005
sS'buwtafliyqap_1'
p2998
I5211
sS'{ixotAr_1'
p2999
I3007
sS'lubonAn_1'
p3000
I2586
sS'cdd_0'
p3001
I3009
sS'Eamil-a_1'
p3002
I3010
sS'AlOqbAT_0'
p3003
I3011
sS'OwlAdhm_0'
p3004
I3012
sS'gAmidiy~_1'
p3005
I3013
sS'qDAQyp_0'
p3006
I3014
sS'Almntcrp_0'
p3007
I3015
sS'taHar~uk_1'
p3008
I3016
sS'rahiyn_1'
p3009
I3017
sS'{iEotaraD_1'
p3010
I3018
sS'bAxirap_1'
p3011
I3019
sS'mutanAqiD_1'
p3012
I3020
sS'IcEArA_0'
p3013
I3021
sS'kArivap_1'
p3014
I3022
sS'Almctrkp_0'
p3015
I3023
sS'AltcAwry_0'
p3016
I3024
sS'Idrys_0'
p3017
I3025
sS'matoHaf_1'
p3018
I3026
sS'suroEap_1'
p3019
I3027
sS'OhAly_0'
p3020
I3028
sS'wOnh_0'
p3021
I1801
sS'{iHotawaY_1'
p3022
I3030
sS'>aqolaq_1'
p3023
I3031
sS'qaDiy~ap_1'
p3024
I3032
sS'gymArAyc_0'
p3025
I3033
sS'cnt_0'
p3026
I3034
sS'tamoriyn_2'
p3027
I3035
sS'musal~aH_1'
p3028
I3036
sS'musal~aH_2'
p3029
I3037
sS'OqSY_0'
p3030
I3038
sS'mar~ap_1'
p3031
I3039
sS'manobaE_1'
p3032
I3040
sS'nuzuwH_1'
p3033
I3041
sS'dawom_1'
p3034
I3042
sS'AlOydz_0'
p3035
I3043
sS'cyQA_0'
p3036
I3044
sS'mudAxalap_1'
p3037
I3045
sS'fujuwr_1'
p3038
I3046
sS'wzmlAQhm_0'
p3039
I3047
sS'nazaf-i_1'
p3040
I3048
sS'tadahowur_1'
p3041
I3049
sS'OrADy_0'
p3042
I3050
sS'muHotamal_1'
p3043
I3051
sS'miEorAj_1'
p3044
I3052
sS'SaluH-u_1'
p3045
I3053
sS'Omyrkywn_0'
p3046
I3054
sS'kasob_1'
p3047
I3055
sS'binotAguwn_1'
p3048
I3056
sS'>aqofal_1'
p3049
I3057
sS'mufaw~aD_1'
p3050
I3058
sS'taEoyiyn_1'
p3051
I3059
sS'ranodap_1'
p3052
I2920
sS'AlOcxAS_0'
p3053
I3061
sS'Hutur_1'
p3054
I3062
sS'DamAn_1'
p3055
I3063
sS'tOyydA_0'
p3056
I1929
sS'bntAQj_0'
p3057
I3064
sS'llbqAC_0'
p3058
I3065
sS'qAran_1'
p3059
I3066
sS'musotamir~_1'
p3060
I3067
sS'liyAnodruw_1'
p3061
I4366
sS'kAlMxryn_0'
p3062
I3069
sS'2989_0'
p3063
I3070
sS'danokAn_1'
p3064
I3071
sS'tAsiE_1'
p3065
I3072
sS'AlfV_0'
p3066
I3073
sS'OwdE_0'
p3067
I3074
sS'{inoxafaD_1'
p3068
I3075
sS'wmnV_0'
p3069
I3076
sS'DAgiT_1'
p3070
I3077
sS'bitruwliyuwm_1'
p3071
I3078
sS'All~`hum~a_1'
p3072
I6947
sS'wtOvrt_0'
p3073
I3080
sS'llmsWwlyn_0'
p3074
I6948
sS'muxotaS~_1'
p3075
I3083
sS'crTyyn_0'
p3076
I3084
sS'cykAgw_0'
p3077
I3085
sS'OnZmp_0'
p3078
I3086
sS'AlEyc_0'
p3079
I3087
sS'1993_0'
p3080
I3088
sS'fInnA_0'
p3081
I3089
sS'rizoq_2'
p3082
I3090
sS'bOtnh_0'
p3083
I3091
sS'klArk_1'
p3084
I4371
sS'IDrAbA_0'
p3085
I3093
sS'bAl_2'
p3086
I3094
sS'Hikomap_1'
p3087
I1811
sS'raqAbap_1'
p3088
I3096
sS'49_0'
p3089
I3097
sS'5_1_0'
p3090
I4581
sS'wcEbh_0'
p3091
I3098
sS'daEowap_1'
p3092
I6950
sS'AlOsrY_0'
p3093
I3100
sS'taroHiyb_1'
p3094
I3101
sS'wOSHAb_0'
p3095
I3102
sS'IlynA_0'
p3096
I3103
sS'AlnfAV_0'
p3097
I3104
sS'IsqAT_0'
p3098
I3105
sS'AlIEdAm_0'
p3099
I3106
sS'wAlvlAvAC_0'
p3100
I3107
sS'\\_0'
p3101
I3108
sS'bzEmAC_0'
p3102
I3570
sS'taSoEiyd_1'
p3103
I3110
sS'fikotuwriyA_1'
p3104
I7578
sS'AlOrdn_0'
p3105
I3111
sS'maxobar_2'
p3106
I3112
sS'AlOhdAf_0'
p3107
I3113
sS'OslHp_0'
p3108
I3114
sS'sAd-u_1'
p3109
I3115
sS'wttcArk_0'
p3110
I3116
sS';_0'
p3111
I3117
sS'{isotimArap_1'
p3112
I3118
sS'1998_0'
p3113
I3119
sS'mAd~ap_1'
p3114
I3120
sS'lcrAC_0'
p3115
I3121
sS'wOSdqAQhA_0'
p3116
I3122
sS'watar_1'
p3117
I3123
sS'Inh_0'
p3118
I3124
sS'SalAH_1'
p3119
I3125
sS'gayov_1'
p3120
I3126
sS'40_0'
p3121
I3127
sS'SAEiqap_2'
p3122
I3128
sS'AlTAQrp_0'
p3123
I3129
sS'takat~ul_1'
p3124
I3130
sS'AlObrAj_0'
p3125
I3131
sS'mynAC_0'
p3126
I1818
sS'Eaqiydap_1'
p3127
I3133
sS'Hafol_1'
p3128
I5652
sS'zaxim_1'
p3129
I3136
sS'wOgrAD_0'
p3130
I3137
sS'maz~aq_1'
p3131
I4376
sS'Dayof_1'
p3132
I3139
sS'If_0'
p3133
I3140
sS'mAlik_1'
p3134
I3141
sS'AlIyrAny_0'
p3135
I3142
sS'wIntAj_0'
p3136
I3143
sS'xalAEap_1'
p3137
I3144
sS'Ort_0'
p3138
I3145
sS'EaraD-i_1'
p3139
I3146
sS'wAlmcArkp_0'
p3140
I3147
sS'ObrzhA_0'
p3141
I3148
sS'HasA-u_1'
p3142
I3149
sS'DuEof_1'
p3143
I3150
sS'tamoriyrap_1'
p3144
I3383
sS'waf~ar_1'
p3145
I3151
sS'Osr_0'
p3146
I806
sS'fiqodAn_1'
p3147
I3153
sS'kawoniy~_1'
p3148
I3476
sS'OrAd_0'
p3149
I4132
sS'wuvuwq_1'
p3150
I3156
sS'gan~aY_1'
p3151
I3157
sS'mA}iy~_1'
p3152
I3158
sS'ramiy~ap_1'
p3153
I4550
sS'januwb_1'
p3154
I3160
sS'bncr_0'
p3155
I3161
sS'AlIflAt_0'
p3156
I3162
sS'tcryH_0'
p3157
I3163
sS'fikorap_1'
p3158
I3164
sS'gAbap_1'
p3159
I3165
sS'>avAr_1'
p3160
I3166
sS'Iskwtlndyp_0'
p3161
I3167
sS'buwxArisot_1'
p3162
I3168
sS'Eabar-u_1'
p3163
I3169
sS'Otmkn_0'
p3164
I3170
sS'majomuwEap_1'
p3165
I3171
sS'rQAsp_0'
p3166
I3172
sS'AlcbAb_0'
p3167
I3173
sS'EunoSuriy~ap_1'
p3168
I3174
sS'wAlOrjntyn_0'
p3169
I3175
sS'OlA_0'
p3170
I3176
sS'maHoraqap_1'
p3171
I3177
sS'zEmAC_0'
p3172
I3178
sS'sajiyn_1'
p3173
I5659
sS'rawov_1'
p3174
I3180
sS'wAlmWlfyn_0'
p3175
I3181
sS'lOEmAl_0'
p3176
I3182
sS'Suduwr_1'
p3177
I6960
sS'liyfiy_1'
p3178
I3184
sS'tawoTiyd_1'
p3179
I3185
sS'stWmn_0'
p3180
I3186
sS'Zil~_1'
p3181
I3187
sS'AlgAQb_0'
p3182
I3188
sS'{inotiZAr_1'
p3183
I3189
sS'AlMtyp_0'
p3184
I3190
sS'jadiyd_1'
p3185
I3191
sS'{isotanokar_1'
p3186
I62
sS'xaT~Ariy~_1'
p3187
I3193
sS'xAQfwn_0'
p3188
I3194
sS'duroziy~_1'
p3189
I5339
sS'OsAtVp_0'
p3190
I3196
sS'kAnuwn_1'
p3191
I3197
sS'myWws_0'
p3192
I3198
sS'llmbAdQ_0'
p3193
I3199
sS'EunoSur_1'
p3194
I3200
sS'M_0'
p3195
I4387
sS'IncAQhA_0'
p3196
I3786
sS'TaEan-a_1'
p3197
I3203
sS'AltVkAry_0'
p3198
I3204
sS'mxTQwn_0'
p3199
I3205
sS'All~ah_1'
p3200
I3206
sS'muDiy~_1'
p3201
I3207
sS'daraz-u_1'
p3202
I3208
sS'fAw_1'
p3203
I3835
sS'OqbATA_0'
p3204
I3210
sS'sayoTarap_1'
p3205
I3211
sS'taqAEad_1'
p3206
I3212
sS'Ojrt_0'
p3207
I3213
sS'qadiym_1'
p3208
I6467
sS'msWwlp_0'
p3209
I3214
sS'mufAd_1'
p3210
I3215
sS'tamowiyl_1'
p3211
I3216
sS'{ijotimAEiy~_1'
p3212
I3217
sS'wrQysp_0'
p3213
I3218
sS'muEASir_1'
p3214
I3219
sS'IrAdp_0'
p3215
I3220
sS'ybdO_0'
p3216
I4391
sS'jabal_1'
p3217
I3222
sS'Hcycp_0'
p3218
I3223
sS'35_0'
p3219
I3224
sS'tcjE_0'
p3220
I3225
sS'wmbdO_0'
p3221
I3226
sS'nAEis_1'
p3222
I3227
sS'88_0'
p3223
I3228
sS'{isotinAd_1'
p3224
I3229
sS'rahon_1'
p3225
I3230
sS'IytcybyryA_0'
p3226
I3231
sS'wOnTwAn_0'
p3227
I3232
sS'hAniy_1'
p3228
I1831
sS'Olm_0'
p3229
I3235
sS'muEolan_1'
p3230
I3236
sS'Onjbt_0'
p3231
I3237
sS'ltHVyrhA_0'
p3232
I3238
sS'SaHAfiy~_1'
p3233
I4038
sS'SaHAfiy~_2'
p3234
I3706
sS'AltnfyVyp_0'
p3235
I4045
sS'EiSoyAn_1'
p3236
I4054
sS'jrAC_0'
p3237
I3243
sS'wIElAmyp_0'
p3238
I3244
sS'tirosAnap_2'
p3239
I4576
sS'wcddt_0'
p3240
I3246
sS'87_0'
p3241
I3247
sS'tamar~ud_1'
p3242
I3248
sS'AlmrcHwn_0'
p3243
I3249
sS'tOmyn_0'
p3244
I4091
sS'OdwA_0'
p3245
I3251
sS'OfrAm_0'
p3246
I3252
sS'muDAEafap_1'
p3247
I3253
sS'tajam~uE_1'
p3248
I3254
sS'mudorik_1'
p3249
I3255
sS'AlIlqAC_0'
p3250
I3256
sS'bIjrAC_0'
p3251
I3257
sS'rihAn_1'
p3252
I3258
sS'musotaxoraj_1'
p3253
I3259
sS'IrhAby_0'
p3254
I3260
sS'gubAr_1'
p3255
I3261
sS'lIElAn_0'
p3256
I3262
sS'AlOlgAm_0'
p3257
I3263
sS'gAlibiy~ap_1'
p3258
I3264
sS'jAliyap_1'
p3259
I3265
sS'wAlmsWwlwn_0'
p3260
I3266
sS'xaTa>_1'
p3261
I2552
sS'SadAqap_1'
p3262
I3268
sS'Altcyky_0'
p3263
I3269
sS'bAt-i_1'
p3264
I3270
sS'OdAWh_0'
p3265
I3271
sS'lIrAdp_0'
p3266
I3272
sS'fayoSal_1'
p3267
I3273
sS'wOkdt_0'
p3268
I5673
sS'bAr~_1'
p3269
I3275
sS'Al{ivonAni_1'
p3270
I3276
sS'rabaT-ui_1'
p3271
I3277
sS'llcEb_0'
p3272
I3278
sS'{inoqisAm_1'
p3273
I6979
sS'zay~ad_1'
p3274
I4273
sS'OfgAnyp_0'
p3275
I3281
sS'nazoEap_1'
p3276
I4281
sS'mudAhamap_1'
p3277
I3283
sS'gAyap_1'
p3278
I3284
sS'fa_1'
p3279
I3285
sS'llOhl_0'
p3280
I3286
sS'fAruwq_2'
p3281
I3287
sS'{iHotamaY_1'
p3282
I3288
sS'smycr_0'
p3283
I3289
sS'masiyH_2'
p3284
I3290
sS'briyTAniy~_1'
p3285
I3292
sS'jAnoluwkA_1'
p3286
I3293
sS'Albcryp_0'
p3287
I3294
sS'Almftc_0'
p3288
I3295
sS'Antcrt_0'
p3289
I3296
sS'tawaq~uf_1'
p3290
I3297
sS'OcEr_0'
p3291
I3298
sS'naEam_1'
p3292
I3299
sS'taHoriyk_1'
p3293
I3300
sS'OTbAWh_0'
p3294
I3301
sS'musalosal_1'
p3295
I3302
sS'tOsst_0'
p3296
I3303
sS'AlcrkAt_0'
p3297
I4419
sS'muHar~ik_1'
p3298
I3305
sS'Iykwrynym_0'
p3299
I4440
sS'nwAkcwT_0'
p3300
I3308
sS'tAyowAn_1'
p3301
I3309
sS'jihap_1'
p3302
I3310
sS'{iEotabar_1'
p3303
I3311
sS'muraw~iE_1'
p3304
I3312
sS'IdArth_0'
p3305
I3313
sS'futuw~ap_1'
p3306
I3314
sS'ycArkwn_0'
p3307
I5681
sS'{isotigolAl_1'
p3308
I3316
sS'saj~al_1'
p3309
I3317
sS'muqATaEap_1'
p3310
I3318
sS'3_0'
p3311
I3319
sS'SadArap_1'
p3312
I3320
sS'huwa_1'
p3313
I3322
sS'mrcH_0'
p3314
I3323
sS'faqor_1'
p3315
I3324
sS'>amokan_1'
p3316
I3325
sS'byQyp_0'
p3317
I3326
sS'kmAQn_0'
p3318
I3327
sS'tawaS~ul_1'
p3319
I3328
sS'damAr_1'
p3320
I3329
sS'SAEid_1'
p3321
I3330
sS'wAlOrdny_0'
p3322
I3331
sS'tisoE_1'
p3323
I3332
sS'taHoriyr_1'
p3324
I3333
sS'talomiyH_1'
p3325
I3334
sS'warad-i_1'
p3326
I3335
sS'Hukuwmap_1'
p3327
I3336
sS'75_0'
p3328
I3337
sS'bIElAnh_0'
p3329
I3338
sS'IcEAEA_0'
p3330
I3339
sS'manaE_1'
p3331
I3340
sS'AlIjrAmyp_0'
p3332
I5685
sS'lOsAmp_0'
p3333
I3342
sS'AlfxV_0'
p3334
I3343
sS'AEtdACAt_0'
p3335
I3344
sS'Eanotar_3'
p3336
I3345
sS'{inofirAj_1'
p3337
I1855
sS'sAlim_2'
p3338
I3347
sS'EiqAb_1'
p3339
I4671
sS'naHow_1'
p3340
I3349
sS'cArkt_0'
p3341
I3350
sS'takoviyf_1'
p3342
I3351
sS'lInkltrA_0'
p3343
I3352
sS'brAg_1'
p3344
I3353
sS'taEodAd_1'
p3345
I3354
sS'taEAdul_1'
p3346
I3355
sS'nayojiyriyA_1'
p3347
I3356
sS'OsbAbhA_0'
p3348
I3357
sS'dimAg_1'
p3349
I3358
sS'wcdd_0'
p3350
I3359
sS'saEod_1'
p3351
I3360
sS'gariyb_1'
p3352
I4763
sS'gAb-i_1'
p3353
I3362
sS'{ijotAH_1'
p3354
I4774
sS'xal~Aq_1'
p3355
I4780
sS'HVrp_0'
p3356
I3365
sS'daros_1'
p3357
I3366
sS'EAQlp_0'
p3358
I6512
sS'ltOhyl_0'
p3359
I3367
sS'Hrfwc_0'
p3360
I3368
sS'72_0'
p3361
I3369
sS'har~-i_1'
p3362
I3370
sS'OHdhm_0'
p3363
I3371
sS'fiy_1'
p3364
I3372
sS'wOwDHt_0'
p3365
I3373
sS'Eaqad-i_1'
p3366
I3374
sS'baHorayoni_1'
p3367
I3375
sS'wInmA_0'
p3368
I3376
sS'Omr_0'
p3369
I1862
sS'AlcAEr_0'
p3370
I2659
sS'mutamav~il_1'
p3371
I3379
sS'tamoviyl_1'
p3372
I3380
sS'cryT_0'
p3373
I3381
sS'OHAkm_0'
p3374
I4857
sS'llOngwlyyn_0'
p3375
I4414
sS'tilfizyuwniy~_1'
p3376
I3384
sS'{ifotiqAr_1'
p3377
I3385
sS'mcAwrAt_0'
p3378
I3386
sS'muEarobis_1'
p3379
I3388
sS'HujayolAn_1'
p3380
I3389
sS'wOwAxr_0'
p3381
I3390
sS'1923_0'
p3382
I3391
sS'takal~am_1'
p3383
I3392
sS'Hcwd_0'
p3384
I3393
sS'>afoqad_1'
p3385
I3394
sS'nAyif_1'
p3386
I3395
sS'AEtVAr_0'
p3387
I4176
sS'rAbiTap_1'
p3388
I3396
sS'{it~iSAl_1'
p3389
I3397
sS'bAlxTO_0'
p3390
I3398
sS'murax~aS_1'
p3391
I7674
sS'taTal~ab_1'
p3392
I3399
sS'EukAZ_1'
p3393
I3400
sS'fiEoliy~_1'
p3394
I3401
sS'basiyT_1'
p3395
I4417
sS'tadax~ul_1'
p3396
I1866
sS'wAldwAQr_0'
p3397
I3404
sS'nafoT_1'
p3398
I3405
sS'Iyly_0'
p3399
I3406
sS'{inotAb_1'
p3400
I3407
sS'rawoz_1'
p3401
I3408
sS'tcjyE_0'
p3402
I3409
sS'HAriq_1'
p3403
I3410
sS'AlObHAv_0'
p3404
I3411
sS'TAwal_1'
p3405
I3412
sS'qAm-u_1'
p3406
I3413
sS'busotAn_1'
p3407
I3414
sS'EarafAt_1'
p3408
I5054
sS'OdyA_0'
p3409
I5698
sS'AlOrjntyn_0'
p3410
I3417
sS'yaqiyn_1'
p3411
I3418
sS'mnfwcy_0'
p3412
I3419
sS'bEVrAn_0'
p3413
I5111
sS'{iqotanaE_1'
p3414
I3421
sS'AlrWsAC_0'
p3415
I3422
sS'rAEaY_1'
p3416
I3423
sS'wOhmyp_0'
p3417
I3424
sS'mutaDar~ir_1'
p3418
I3425
sS'xuruwj_1'
p3419
I3426
sS'tcyrtc_0'
p3420
I3427
sS'taforiyT_1'
p3421
I3428
sS'wIDAfp_0'
p3422
I3429
sS'OwrAq_0'
p3423
I3430
sS'EAlamiy~_1'
p3424
I3431
sS'wcxSyn_0'
p3425
I3432
sS'{iHotisAb_1'
p3426
I6894
sS'AlqVAfy_0'
p3427
I3433
sS'zawAj_1'
p3428
I3434
sS'tcdyd_0'
p3429
I3435
sS'AlIsrAE_0'
p3430
I3436
sS'wAlIyTAly_0'
p3431
I3437
sS'wAlOcgAl_0'
p3432
I3438
sS'70766_0'
p3433
I3439
sS'rynw_1'
p3434
I3440
sS'AlcrwT_0'
p3435
I7009
sS'Earoqal_1'
p3436
I3442
sS'tasAquT_1'
p3437
I3443
sS'AlOfDl_0'
p3438
I3444
sS'EAyad_1'
p3439
I3445
sS'faroHap_1'
p3440
I5308
sS'wOqAmwA_0'
p3441
I3447
sS'{ihotimAm_1'
p3442
I4430
sS'IdArthA_0'
p3443
I3449
sS'wOwqf_0'
p3444
I3450
sS'Hizobiy~_1'
p3445
I3451
sS'zawojap_1'
p3446
I3452
sS'hiyuwsotun_1'
p3447
I3453
sS'labiv-a_1'
p3448
I3454
sS'OlfArw_0'
p3449
I3455
sS'S_1'
p3450
I3456
sS'muwgAbiy_1'
p3451
I3457
sS'mifotAH_1'
p3452
I3458
sS'AlntAQj_0'
p3453
I3459
sS'tcylr_0'
p3454
I3460
sS'muEAdalap_1'
p3455
I3461
sS'qid~iys_1'
p3456
I3462
sS'haziyl_1'
p3457
I3463
sS'raqom_1'
p3458
I3464
sS'niyuwyuwrokiy~_1'
p3459
I3465
sS'AlOqdAm_0'
p3460
I3466
sS'hinod_1'
p3461
I7013
sS'Alckwk_0'
p3462
I3467
sS'kamAl_1'
p3463
I3468
sS'cAmlp_0'
p3464
I3469
sS'tahAfat_1'
p3465
I3470
sS'27_0'
p3466
I3471
sS'garobiy~_1'
p3467
I3472
sS'fawor_1'
p3468
I3473
sS'AlcfAfyp_0'
p3469
I7015
sS'AlVhby_0'
p3470
I3475
sS'{it~ifAqiy~_1'
p3471
I3154
sS'nafoy_1'
p3472
I3477
sS'kAtdrAQyAt_0'
p3473
I3478
sS'lOrSdthm_0'
p3474
I3479
sS'swAC_0'
p3475
I3480
sS'EAjiz_1'
p3476
I3481
sS'jAQzthA_0'
p3477
I3482
sS'kifAyap_1'
p3478
I3483
sS'luwmuwnd_1'
p3479
I3484
sS'Suwrap_1'
p3480
I3155
sS'kuwhiyn_1'
p3481
I3485
sS'bArid_1'
p3482
I3486
sS'bAtriyk_1'
p3483
I3487
sS'xAl-a_1'
p3484
I3488
sS'tcyly_0'
p3485
I3489
sS'IdxAl_0'
p3486
I3490
sS'bilAl_1'
p3487
I3491
sS'DAhir_1'
p3488
I3493
sS'AlOswjyp_0'
p3489
I3494
sS'faj~ar_1'
p3490
I5716
sS'{iqotaHam_1'
p3491
I3496
sS'suquwT_1'
p3492
I3497
sS'miEoSarap_1'
p3493
I3498
sS'SaEid-a_1'
p3494
I3499
sS'Eaz~az_1'
p3495
I3500
sS'>aboraz_1'
p3496
I3501
sS'qanodahAr_1'
p3497
I7472
sS'nuSorap_1'
p3498
I3502
sS'IsrAQylyA_0'
p3499
I3503
sS'mayAmiy_1'
p3500
I3504
sS'maToEam_1'
p3501
I5719
sS'stiyf_1'
p3502
I3506
sS'OckAl_0'
p3503
I3507
sS'wrOt_0'
p3504
I3508
sS'IgnATyws_0'
p3505
I3509
sS'AlOwnSp_0'
p3506
I3510
sS'muTAlib_1'
p3507
I3511
sS'daqiyqap_1'
p3508
I3512
sS'wjzC_0'
p3509
I5721
sS'farAg_1'
p3510
I3514
sS'diyAnap_1'
p3511
I3515
sS'wOnhm_0'
p3512
I7022
sS'nAt-u_1'
p3513
I3516
sS'hum_1'
p3514
I3517
sS'150_0'
p3515
I3518
sS'muDAd~_1'
p3516
I3519
sS'Eabod_1'
p3517
I3520
sS'msWwlwn_0'
p3518
I3521
sS'cb_0'
p3519
I3522
sS'AlIdArAt_0'
p3520
I1892
sS'Aktcft_0'
p3521
I3159
sS'wODAfwA_0'
p3522
I5723
sS'tasal~ul_1'
p3523
I3525
sS'tajosiyd_1'
p3524
I3526
sS'muEab~ir_1'
p3525
I3527
sS'IElAmy_0'
p3526
I3528
sS'Oqymt_0'
p3527
I7024
sS'blAk_1'
p3528
I3530
sS'bayAn_1'
p3529
I3531
sS'wAlOfrAd_0'
p3530
I4447
sS'muTab~aq_1'
p3531
I7200
sS'syntcrwn_0'
p3532
I3533
sS'AlMlyp_0'
p3533
I3534
sS'safoH_1'
p3534
I3535
sS'jalosap_1'
p3535
I3536
sS'sycklAn_0'
p3536
I3537
sS'miydAwiy~_1'
p3537
I3538
sS'EaZiym_2'
p3538
I3539
sS'wAlOSdqAC_0'
p3539
I3540
sS'luwiys_1'
p3540
I3541
sS'muEoTaY_1'
p3541
I3542
sS'huwbiyr_1'
p3542
I2721
sS'had~Af_1'
p3543
I3543
sS'muxAlif_1'
p3544
I3544
sS'kAroluws_1'
p3545
I3545
sS'lcEb_0'
p3546
I5726
sS'Altckylp_0'
p3547
I3548
sS'bAcrt_0'
p3548
I1896
sS'AlrsAQl_0'
p3549
I3550
sS'waHod_1'
p3550
I3551
sS'VhAb_0'
p3551
I1897
sS'{it~ibAE_1'
p3552
I3553
sS'takAmul_1'
p3553
I3554
sS'laHuwd_1'
p3554
I3555
sS'vawob_1'
p3555
I3556
sS'madoxal_1'
p3556
I3557
sS'EAhad_1'
p3557
I3558
sS'Sayodaliy~_1'
p3558
I3559
sS'Oxyrp_0'
p3559
I3560
sS'llnAcQp_0'
p3560
I3561
sS'nAziH_2'
p3561
I3562
sS'hinodiy~_1'
p3562
I4452
sS'HimAyap_1'
p3563
I3564
sS'wMyt_0'
p3564
I3565
sS'mhnQA_0'
p3565
I3566
sS'mutamar~in_1'
p3566
I3567
sS'tgVyp_0'
p3567
I3568
sS'tawal~iy_1'
p3568
I3569
sS'IlhAnAn_0'
p3569
I3571
sS'12_0'
p3570
I3572
sS'samaH-a_1'
p3571
I3573
sS'mubotakar_1'
p3572
I3574
sS'Say~Ad_1'
p3573
I3575
sS'mWxrA_0'
p3574
I3576
sS'AstftAC_0'
p3575
I3577
sS'muEoTiy_1'
p3576
I3578
sS'muqad~am_3'
p3577
I3579
sS'muqad~am_2'
p3578
I3580
sS'muqad~am_1'
p3579
I3581
sS'buTorus_1'
p3580
I3582
sS'rcAc_0'
p3581
I3583
sS'AstqAC_0'
p3582
I3584
sS'muEotaraf_1'
p3583
I3585
sS'OHmd_0'
p3584
I7037
sS'tadoqiyq_1'
p3585
I3587
sS'taqoriyb_1'
p3586
I3588
sS'diyk_1'
p3587
I3589
sS'qubolAn_1'
p3588
I3590
sS'Habos_1'
p3589
I3591
sS'AlIsktcAt_0'
p3590
I7038
sS'InhAD_0'
p3591
I3593
sS'samiyr_1'
p3592
I3595
sS'OjrAm_0'
p3593
I3596
sS'EAbid_1'
p3594
I3597
sS'rAQEp_0'
p3595
I3598
sS'muwsokuw_1'
p3596
I3599
sS'>aboSar_1'
p3597
I3600
sS'AlOSly_0'
p3598
I3601
sS'Hariyq_1'
p3599
I3602
sS'ywckA_0'
p3600
I3603
sS'mcAr_0'
p3601
I3604
sS'SabiyH_1'
p3602
I3605
sS'ck_0'
p3603
I3606
sS'AlmWlf_0'
p3604
I3607
sS'wIdArth_0'
p3605
I3608
sS'musAEadap_1'
p3606
I3609
sS'OsbAb_0'
p3607
I3610
sS'SuboH_1'
p3608
I3613
sS'hayuwm_1'
p3609
I3614
sS'IjlAC_0'
p3610
I3615
sS'Tarad-u_1'
p3611
I4462
sS'jay~id_1'
p3612
I3618
sS'gaw~ASap_1'
p3613
I3619
sS'maT~ATiy~_1'
p3614
I3620
sS'OElnwA_0'
p3615
I7044
sS'mcArkth_0'
p3616
I3621
sS'tawag~al_1'
p3617
I3622
sS'mafar~_1'
p3618
I3623
sS'ramoziy~_1'
p3619
I3624
sS'InhAC_0'
p3620
I3625
sS'jAmiEiy~_1'
p3621
I3626
sS'AlOhAly_0'
p3622
I7045
sS'AlOswAq_0'
p3623
I3628
sS'wIdArthA_0'
p3624
I3629
sS'qrO_0'
p3625
I1911
sS'69_0'
p3626
I3633
sS'{iEotibAr_1'
p3627
I3634
sS'{inoEadam_1'
p3628
I3635
sS'huwnoduwrAs_1'
p3629
I3636
sS'EAQdAt_0'
p3630
I3637
sS'llOdwAr_0'
p3631
I3638
sS'taHodiyd_1'
p3632
I3639
sS'bhVA_0'
p3633
I3640
sS'mAyk_1'
p3634
I3641
sS'Iqlym_0'
p3635
I1913
sS'{ilotaf~_1'
p3636
I3643
sS'bAtl_1'
p3637
I3644
sS'taDAmun_1'
p3638
I3645
sS'yuwhAnosuwn_1'
p3639
I3646
sS'mul~A_1'
p3640
I3647
sS'bAlOslHp_0'
p3641
I5740
sS'fiyliybs_1'
p3642
I3649
sS'takay~uf_1'
p3643
I3650
sS'Haraj_2'
p3644
I3651
sS'wAlInmAC_0'
p3645
I3652
sS'taTobiyq_1'
p3646
I3653
sS'muxorij_1'
p3647
I3654
sS'AlOlbAn_0'
p3648
I3655
sS'wOrbkt_0'
p3649
I3656
sS'mal~ak_1'
p3650
I3657
sS'Ilyhm_0'
p3651
I3658
sS'{inozilAq_1'
p3652
I3659
sS'jAwah_1'
p3653
I3660
sS'Hasanap_1'
p3654
I6562
sS'miloHim_1'
p3655
I3662
sS'EaSaf-i_1'
p3656
I3663
sS'taTar~uf_1'
p3657
I3664
sS'>aqAm_1'
p3658
I3665
sS'Eumolap_1'
p3659
I3666
sS'lawolA_1'
p3660
I3668
sS'EzAWnA_0'
p3661
I3669
sS'{it~ijAr_1'
p3662
I3670
sS'flAdiy_1'
p3663
I3671
sS'fAdiy_1'
p3664
I3672
sS'wvAQqy_0'
p3665
I3673
sS'suwlAnA_1'
p3666
I3674
sS'wcml_0'
p3667
I3675
sS'OTlq_0'
p3668
I3676
sS'mcyrA_0'
p3669
I3677
sS'bAlmQAt_0'
p3670
I3306
sS'hataf-i_1'
p3671
I3679
sS'yOml_0'
p3672
I3680
sS'AlOhly_0'
p3673
I3681
sS'lncAhd_0'
p3674
I5750
sS'byDwn_1'
p3675
I3683
sS'wzrAC_0'
p3676
I3684
sS'rAfiD_1'
p3677
I3685
sS'gay~_1'
p3678
I3687
sS'buwrA_1'
p3679
I3688
sS'OlEAbhm_0'
p3680
I3689
sS'tajomiyE_1'
p3681
I3690
sS'bIykAl_0'
p3682
I3691
sS'sAbiE_1'
p3683
I3692
sS'variy~_1'
p3684
I3693
sS'suwriyA_1'
p3685
I3694
sS'wxbrAC_0'
p3686
I3696
sS'muEotadil_1'
p3687
I3697
sS'masoH_1'
p3688
I3698
sS'saraTAn_1'
p3689
I3699
sS'OmDY_0'
p3690
I3700
sS'7_0'
p3691
I3701
sS'61_0'
p3692
I3702
sS'bliyks_1'
p3693
I3703
sS'AQtlAfyp_0'
p3694
I3704
sS'binoyAmiyn_1'
p3695
I3705
sS'takah~an_1'
p3696
I6138
sS'{inoxirAT_1'
p3697
I3707
sS'tjVrhA_0'
p3698
I3709
sS'>axojal_1'
p3699
I3710
sS'mutanaq~il_1'
p3700
I3711
sS'sAQHA_0'
p3701
I5755
sS'tamAdiy_1'
p3702
I3713
sS'waEod_1'
p3703
I3714
sS'muforadAt_1'
p3704
I3715
sS'AlqDAC_0'
p3705
I3716
sS'AlIDAfyp_0'
p3706
I7064
sS'AlEAQd_0'
p3707
I3718
sS'AlOrdnyp_0'
p3708
I3719
sS'AlmcyEyn_0'
p3709
I3720
sS'{iHotimAl_1'
p3710
I3721
sS'1989_0'
p3711
I3722
sS'Euruwbap_1'
p3712
I4801
sS'AlIslAm_0'
p3713
I3724
sS'Ilyh_0'
p3714
I3725
sS'takab~ad_1'
p3715
I3726
sS'Onh_0'
p3716
I3727
sS'part_interrog'
p3717
I4364
sS'mtOxrA_0'
p3718
I3728
sS'barod_1'
p3719
I3729
sS'IslAmy_0'
p3720
I3730
sS'242_0'
p3721
I3731
sS'mawot_1'
p3722
I3732
sS'EAdil_2'
p3723
I3733
sS'EAdil_1'
p3724
I3734
sS'cAngAy_0'
p3725
I3735
sS'mrfO_0'
p3726
I4056
sS'Euluw~_1'
p3727
I3737
sS'silom_1'
p3728
I3738
sS'qAQdhm_0'
p3729
I3739
sS'OvAr_0'
p3730
I3740
sS'AlOmryky_0'
p3731
I3741
sS'{isotiqoTAb_1'
p3732
I3742
sS'muHAmiy_1'
p3733
I3743
sS'nfVth_0'
p3734
I3744
sS'muSoTafaY_1'
p3735
I3195
sS'cxSy_0'
p3736
I3746
sS'Hiqod_1'
p3737
I3747
sS'cAhdth_0'
p3738
I3749
sS'Antcr_0'
p3739
I3750
sS'niyquwsiyA_1'
p3740
I3751
sS'Ony_0'
p3741
I3752
sS'EunowAn_1'
p3742
I3753
sS'mctrkp_0'
p3743
I3754
sS'muqay~ad_1'
p3744
I3755
sS'bAltOvyr_0'
p3745
I3756
sS'llIfsAH_0'
p3746
I3757
sS'tawoSiyap_1'
p3747
I3758
sS'nAQb_0'
p3748
I3759
sS'>arohab_1'
p3749
I3760
sS'muwaZ~af_1'
p3750
I3761
sS'qiyAdap_1'
p3751
I3762
sS'rAmctAyn_0'
p3752
I3763
sS'buwsot_1'
p3753
I3764
sS'wIyrlndA_0'
p3754
I3765
sS'muwrs_1'
p3755
I5277
sS'fawoziy~_2'
p3756
I3766
sS'bud~_1'
p3757
I3767
sS'nawAf_1'
p3758
I3768
sS'takAvur_1'
p3759
I3769
sS'AlmWssp_0'
p3760
I7073
sS'AlnAcQ_0'
p3761
I3770
sS'750_0'
p3762
I3771
sS'mubArAp_1'
p3763
I3772
sS'mutarat~ib_1'
p3764
I3773
sS'siyAHap_1'
p3765
I3774
sS'sAbiq_1'
p3766
I3775
sS'taSar~uf_1'
p3767
I3776
sS'DaguwT_1'
p3768
I3777
sS'AlrQysyp_0'
p3769
I3778
sS'SArix_1'
p3770
I3780
sS'filasoTiyniy~_1'
p3771
I3781
sS'Oml_0'
p3772
I3782
sS'OwlQk_0'
p3773
I3783
sS'jam~ad_1'
p3774
I3784
sS'muTaE~am_1'
p3775
I3785
sS'muEad~At_1'
p3776
I3202
sS'OqAmhA_0'
p3777
I5767
sS'gAmiq_1'
p3778
I3788
sS'Onzl_0'
p3779
I3789
sS'ychd_0'
p3780
I3790
sS'{inoqiTAE_1'
p3781
I3791
sS'AljwAQz_0'
p3782
I3792
sS'maSolaHap_1'
p3783
I3793
sS'AlOwrw_0'
p3784
I3794
sS'Oydy_0'
p3785
I3795
sS'{izodiyAd_1'
p3786
I3796
sS'jisor_1'
p3787
I3797
sS'OvnAC_0'
p3788
I1940
sS'Ofhmt_0'
p3789
I3799
sS'tasodiyd_1'
p3790
I3800
sS'tafar~ug_1'
p3791
I3801
sS'InzAl_0'
p3792
I3802
sS'lAsilokiy~_1'
p3793
I3803
sS'OrwE_0'
p3794
I3804
sS'burotugAl_1'
p3795
I3805
sS'{iEotizAz_1'
p3796
I3806
sS'bAltMmr_0'
p3797
I4220
sS'frAc_0'
p3798
I3807
sS'llcTrnj_0'
p3799
I3808
sS'ncArk_0'
p3800
I3809
sS'Harakap_1'
p3801
I3810
sS'OsAs_0'
p3802
I3811
sS'murAhiq_1'
p3803
I3812
sS'OSdrthA_0'
p3804
I3813
sS'wtcArk_0'
p3805
I3814
sS'sam~aY_1'
p3806
I3815
sS'EAmil_2'
p3807
I3816
sS'EAmil_3'
p3808
I3817
sS'EAmil_1'
p3809
I3818
sS'538_0'
p3810
I3819
sS'ttckl_0'
p3811
I3820
sS'taman~iy_1'
p3812
I3821
sS'cAfyz_0'
p3813
I3822
sS'banawiy~_1'
p3814
I3823
sS'bayoE_1'
p3815
I3824
sS'5_0'
p3816
I3825
sS'vAniyap_1'
p3817
I3826
sS'Odys_0'
p3818
I3827
sS'kaman-u_1'
p3819
I3828
sS'fcnyAkwf_0'
p3820
I3829
sS'tawax~iy_1'
p3821
I3830
sS'HAlim_1'
p3822
I3831
sS'maTAr_1'
p3823
I3832
sS'TAriq_1'
p3824
I5779
sS'57_0'
p3825
I3834
sS'zaroE_1'
p3826
I3836
sS'OrmytAj_0'
p3827
I3837
sS'bArinots_1'
p3828
I3838
sS'mawoluwd_1'
p3829
I3839
sS'wOjryt_0'
p3830
I3840
sS'HawAriy~_1'
p3831
I3841
sS'mkAfOp_0'
p3832
I3842
sS'mutawaf~aY_1'
p3833
I3843
sS'bAlInklyzyp_0'
p3834
I3844
sS'nawoEiy~_1'
p3835
I3845
sS'bAwoluw_1'
p3836
I6381
sS'AlmQAt_0'
p3837
I3846
sS'cArk_0'
p3838
I3847
sS'munotaSaf_1'
p3839
I3848
sS'taxaT~aY_1'
p3840
I3849
sS'jahod_1'
p3841
I3850
sS'ObcE_0'
p3842
I3851
sS'muHAfaZap_1'
p3843
I3852
sS'naqod_1'
p3844
I3853
sS'kavab_1'
p3845
I3854
sS'binAyap_1'
p3846
I35
sS'muqAwamap_1'
p3847
I3856
sS'sam~_1'
p3848
I3857
sS'{isotagoraq_1'
p3849
I3858
sS'Mfty_0'
p3850
I3859
sS'btckyl_0'
p3851
I3860
sS'Oby_0'
p3852
I3861
sS'tcwyc_0'
p3853
I3862
sS'zAl-u_1'
p3854
I4500
sS'{ivonA_1'
p3855
I3864
sS'AlOmr_0'
p3856
I3865
sS'cmlhm_0'
p3857
I3866
sS'dAxil_1'
p3858
I3867
sS'AlOwlwyp_0'
p3859
I3868
sS'50_0'
p3860
I3869
sS'OZn_0'
p3861
I3870
sS'msWwlyp_0'
p3862
I3871
sS'dAm_1'
p3863
I3872
sS'makAnap_1'
p3864
I140
sS'taHak~am_1'
p3865
I3874
sS'lOnhm_0'
p3866
I3875
sS'Euvuwr_1'
p3867
I3876
sS'jiybuwtiy_1'
p3868
I3877
sS'maHokamap_1'
p3869
I3878
sS'muwfad_1'
p3870
I3879
sS'malakiy~_1'
p3871
I3880
sS'wAlcAb_0'
p3872
I3881
sS'IncAWhmA_0'
p3873
I3882
sS'xayAliy~_1'
p3874
I3883
sS'lrQysh_0'
p3875
I6748
sS'Ovbtt_0'
p3876
I3884
sS'garos_1'
p3877
I3885
sS'AlmsWwlyAt_0'
p3878
I3886
sS'mcrwE_0'
p3879
I3887
sS'AlOfkAr_0'
p3880
I3888
sS'nizAr_1'
p3881
I3889
sS'AlOHmr_0'
p3882
I3890
sS'ragom_1'
p3883
I5784
sS'maromaY_1'
p3884
I3892
sS'magorib_1'
p3885
I3893
sS'gVAQyp_0'
p3886
I3894
sS'qunoSuliy~ap_1'
p3887
I3895
sS'bahij_1'
p3888
I3896
sS'llIrsAl_0'
p3889
I3897
sS'ruwmAnosiy~_1'
p3890
I3898
sS'Sunoduwq_1'
p3891
I3899
sS'kcmyr_0'
p3892
I3900
sS'TaEon_1'
p3893
I1959
sS'lOjlhA_0'
p3894
I3902
sS'kAcymA_0'
p3895
I3903
sS'OHzAb_0'
p3896
I3904
sS'bIEAdp_0'
p3897
I3905
sS'mcAhdp_0'
p3898
I3906
sS'tnfyVhm_0'
p3899
I3907
sS'/_0'
p3900
I3908
sS'SuboHiy_1'
p3901
I3909
sS'wbrycyA_0'
p3902
I3910
sS'tujAha_1'
p3903
I3911
sS'turokmAnisotAn_1'
p3904
I3912
sS'EmAnwQyl_0'
p3905
I3913
sS'byE_1'
p3906
I5788
sS'jACt_0'
p3907
I3915
sS'silosilap_1'
p3908
I3916
sS'zayot_1'
p3909
I3917
sS'OzmAthA_0'
p3910
I3918
sS'wuSuwl_1'
p3911
I7097
sS'cbAkh_0'
p3912
I3920
sS'sAdis_1'
p3913
I3921
sS'EuTol_1'
p3914
I3922
sS'tawar~aY_1'
p3915
I3923
sS'AlrAcdyn_0'
p3916
I3924
sS'wal~af_1'
p3917
I5790
sS'Eam~_1'
p3918
I3926
sS'InmA_0'
p3919
I3927
sS'ruwmiy~_1'
p3920
I3928
sS'crTnA_0'
p3921
I486
sS'taqad~umiy~_1'
p3922
I3930
sS'musAbaqap_1'
p3923
I3931
sS'OswO_0'
p3924
I3932
sS'>abodaY_1'
p3925
I3933
sS'tamAm_1'
p3926
I3934
sS'AlObwyn_0'
p3927
I3935
sS'xabiyr_1'
p3928
I3936
sS'wlVlk_0'
p3929
I3937
sS'{iEotamad_1'
p3930
I5794
sS'OfgAny_0'
p3931
I3939
sS'bArajuwAy_1'
p3932
I3940
sS'sWAl_0'
p3933
I3941
sS'44_0'
p3934
I3942
sS'1994_0'
p3935
I3943
sS'taEowiyD_1'
p3936
I552
sS'bdC_0'
p3937
I3945
sS'AlcxSyn_0'
p3938
I3946
sS'gayor_1'
p3939
I3947
sS'AlwsAQl_0'
p3940
I7100
sS'EAdiliy~_1'
p3941
I591
sS'suloTAn_2'
p3942
I3950
sS'Almctrk_0'
p3943
I3951
sS'{ixotafaY_1'
p3944
I3952
sS'qAnuwniy~_1'
p3945
I3953
sS'murotabiT_1'
p3946
I3954
sS'>ayosar_2'
p3947
I3955
sS'AlcAy_0'
p3948
I3956
sS'luwkirobiy_1'
p3949
I3957
sS'maTar_1'
p3950
I3958
sS'taHaq~uq_1'
p3951
I3959
sS'taxal~al_1'
p3952
I3960
sS'OEtqd_0'
p3953
I3961
sS'jAr_1'
p3954
I3962
sS'zaEiym_1'
p3955
I3964
sS'luws_1'
p3956
I3965
sS'AlnmwVj_0'
p3957
I4519
sS'tawoziyE_1'
p3958
I730
sS'qAtil_2'
p3959
I3969
sS'43_0'
p3960
I732
sS'98_0'
p3961
I737
sS'fuwlkluwriy~_1'
p3962
I3972
sS'AlAstEdAC_0'
p3963
I3973
sS'>aEozal_2'
p3964
I3974
sS'rAfaq_1'
p3965
I5802
sS'wafAp_1'
p3966
I3976
sS'HAliy~_1'
p3967
I3977
sS'dibluwmAsiy~_1'
p3968
I7352
sS'hamos_1'
p3969
I3978
sS'>awoHaY_1'
p3970
I3979
sS'>aboqaY_1'
p3971
I7027
sS'70_1_0'
p3972
I5853
sS'.2001_0'
p3973
I6442
sS'talaq~iy_1'
p3974
I3980
sS'Orcyf_0'
p3975
I827
sS'wisAm_1'
p3976
I3982
sS'AlObrz_0'
p3977
I3983
sS'muEAd_1'
p3978
I834
sS'gAr_1'
p3979
I3985
sS'AstcArwA_0'
p3980
I3986
sS'mAliy~_1'
p3981
I3987
sS'zamiyl_1'
p3982
I3988
sS'mawoDuwE_2'
p3983
I3989
sS'AlIkwAdwry_0'
p3984
I3990
sS'Eum~Aliy~_1'
p3985
I870
sS'bqAC_0'
p3986
I3992
sS'jAk_1'
p3987
I3993
sS'kuwruwyiduwf_1'
p3988
I3994
sS'AlqAQd_0'
p3989
I3995
sS'wISAbp_0'
p3990
I3996
sS'Easiyr_2'
p3991
I3997
sS'kafiyl_1'
p3992
I3998
sS'zayotuwn_1'
p3993
I3999
sS'.57_0'
p3994
I4000
sS'maEomuwl_1'
p3995
I4001
sS'lAfit_1'
p3996
I4002
sS'fuTor_1'
p3997
I920
sS'wOlqY_0'
p3998
I4004
sS'91_0'
p3999
I4005
sS'OkwAm_0'
p4000
I4006
sS'AlbsTAC_0'
p4001
I4007
sS'tafaw~uq_1'
p4002
I4008
sS'Haq~_2'
p4003
I4009
sS'baEud-u_1'
p4004
I7493
sS'barazAn_1'
p4005
I4010
sS'tasoliyT_1'
p4006
I4011
sS'ladaY_1'
p4007
I7109
sS'bAhil_1'
p4008
I1536
sS'bAlrQys_0'
p4009
I4014
sS'ImA_0'
p4010
I1023
sS'Haw~al_1'
p4011
I4016
sS'HAmiy_2'
p4012
I1614
sS'V_0'
p4013
I4017
sS'say~id_1'
p4014
I4018
sS'taEojiyl_1'
p4015
I1039
sS'Eumor_1'
p4016
I4020
sS'OsAsy_0'
p4017
I4021
sS'nawom_1'
p4018
I4022
sS'maDojaE_1'
p4019
I4023
sS'laHaZ-a_1'
p4020
I1066
sS'sabat_1'
p4021
I4025
sS'qayod_1'
p4022
I4026
sS'wEVbt_0'
p4023
I4027
sS'vabAt_1'
p4024
I4028
sS'AlMxr_0'
p4025
I4029
sS'210_0'
p4026
I4030
sS'klg_1'
p4027
I4031
sS'fiyliyb_1'
p4028
I76
sS'IyVAC_0'
p4029
I4033
sS'wAlIslAmyp_0'
p4030
I4034
sS'VrwthA_0'
p4031
I4035
sS'taEodiyl_1'
p4032
I4036
sS'Vrwth_0'
p4033
I4037
sS'TarAbulosiy~_1'
p4034
I3239
sS'OsAsyyn_0'
p4035
I4039
sS'Eanowan_1'
p4036
I3240
sS'{isotaqAl_1'
p4037
I4041
sS'TarAbizuwn_1'
p4038
I1179
sS'nasonAs_1'
p4039
I4044
sS'SariyH_1'
p4040
I4046
sS'fInny_0'
p4041
I4047
sS'AlwqAQy_0'
p4042
I4048
sS'mud~aEiy_1'
p4043
I4049
sS'dam~Am_1'
p4044
I1228
sS'ndACAt_0'
p4045
I4051
sS'waTaniy~_1'
p4046
I4052
sS'OsbwE_0'
p4047
I4053
sS'lcEwr_0'
p4048
I3242
sS'waviyqap_1'
p4049
I4055
sS'EAzif_1'
p4050
I4057
sS'rajuwb_1'
p4051
I4058
sS'Almcklp_0'
p4052
I4059
sS'riyfir_1'
p4053
I1293
sS'rafoE_1'
p4054
I4061
sS'EamAlap_1'
p4055
I4062
sS'rAhin_1'
p4056
I3245
sS'qaTiyE_1'
p4057
I4535
sS'mHcwr_0'
p4058
I4064
sS'wtsQ_0'
p4059
I4065
sS'taqAsam_1'
p4060
I4066
sS'mcEl_0'
p4061
I4067
sS'dawor_1'
p4062
I4068
sS'wOkml_0'
p4063
I4069
sS'fuwromuwlA_1'
p4064
I4070
sS'trcyHy_0'
p4065
I4071
sS'EAd-u_1'
p4066
I4072
sS'burokAn_1'
p4067
I4073
sS'yuwniysokuw_1'
p4068
I4074
sS'nAl-a_1'
p4069
I4075
sS'OswAq_0'
p4070
I4076
sS'wAlktAQbyyn_0'
p4071
I4077
sS'bOsrh_0'
p4072
I4078
sS'Oql_0'
p4073
I4079
sS'304_0'
p4074
I4080
sS'O_0'
p4075
I4081
sS'{iHotirAm_1'
p4076
I1394
sS'ckrA_0'
p4077
I4084
sS'AlOxyr_0'
p4078
I4085
sS'damAvap_1'
p4079
I4086
sS'wOErbt_0'
p4080
I4087
sS'Tayofuwr_1'
p4081
I4088
sS'AlcTrnj_0'
p4082
I4089
sS'tOxr_0'
p4083
I4090
sS'nADij_1'
p4084
I1451
sS'qiToEap_1'
p4085
I1454
sS'OmbrATwryth_0'
p4086
I4093
sS'EanAn_1'
p4087
I4094
sS'IEjAbA_0'
p4088
I4095
sS'IndwnysyA_0'
p4089
I4096
sS'OSdrt_0'
p4090
I4097
sS'natiyjap_1'
p4091
I4098
sS'{iqotirAE_1'
p4092
I4099
sS'muqar~ar_1'
p4093
I4100
sS'mycAl_0'
p4094
I4101
sS'wAHid_2'
p4095
I4102
sS'HAsuwb_1'
p4096
I4103
sS'munotaZim_1'
p4097
I4104
sS'vaman_1'
p4098
I4105
sS'dAQm_0'
p4099
I1525
sS'siyAsap_1'
p4100
I4107
sS'82_0'
p4101
I4108
sS'lAHaZ_1'
p4102
I4110
sS'{iqotirAb_1'
p4103
I4111
sS'kutolap_1'
p4104
I4112
sS'AlcrwH_0'
p4105
I4113
sS'ObrylyA_0'
p4106
I4114
sS'tAjar_1'
p4107
I4115
sS'raj~aH_1'
p4108
I4116
sS'tawoTiyn_1'
p4109
I4117
sS'Otrk_0'
p4110
I4118
sS'AlOEwr_0'
p4111
I4119
sS'cgr_0'
p4112
I4120
sS'laEob_1'
p4113
I4121
sS'sulayomAn_1'
p4114
I1598
sS'txcY_0'
p4115
I4123
sS'Dariybap_1'
p4116
I4124
sS'baronAmaj_1'
p4117
I4125
sS'safar_1'
p4118
I4126
sS'AljzC_0'
p4119
I4127
sS'OylAnd_0'
p4120
I4128
sS'wAlOfkAr_0'
p4121
I1636
sS'tctythA_0'
p4122
I4130
sS'tawAliy_1'
p4123
I4131
sS'Ealim-a_1'
p4124
I1660
sS'xAmnQy_0'
p4125
I4133
sS'taroxiyS_1'
p4126
I4134
sS'wAcnTn_0'
p4127
I4135
sS'faDol_1'
p4128
I4136
sS'jamAl_1'
p4129
I4137
sS'jamAl_2'
p4130
I4138
sS'fAlAEtdAC_0'
p4131
I4139
sS'wAstQnAf_0'
p4132
I4140
sS'tafoSiyl_1'
p4133
I1723
sS'wlcbkp_0'
p4134
I4142
sS'{iqotiHAm_1'
p4135
I4143
sS'Tab~aq_1'
p4136
I4144
sS'Darobap_1'
p4137
I4145
sS'AlOytAm_0'
p4138
I4146
sS'{iHotirAf_1'
p4139
I4147
sS'cArkwA_0'
p4140
I4148
sS'{isotagal~_1'
p4141
I4149
sS'taDAfur_1'
p4142
I4150
sS'OTlqt_0'
p4143
I1798
sS'IESAr_0'
p4144
I4152
sS'wwzrAC_0'
p4145
I4153
sS'tarad~ud_1'
p4146
I4154
sS'naj~Am_1'
p4147
I4155
sS'yasAr_1'
p4148
I4156
sS'HiS~ap_1'
p4149
I4157
sS'tOsys_0'
p4150
I1838
sS'taSad~ar_1'
p4151
I4159
sS'{isotasolam_1'
p4152
I1854
sS'qAdim_1'
p4153
I4161
sS'mumokin_1'
p4154
I4162
sS'namosA_1'
p4155
I1904
sS'taman~aY_1'
p4156
I4164
sS'mutazAyid_1'
p4157
I7131
sS'Almtcddyn_0'
p4158
I4166
sS'HAkim_1'
p4159
I4167
sS'HAkim_2'
p4160
I1922
sS'vaqAfap_1'
p4161
I4169
sS'IlyAs_0'
p4162
I4170
sS'jalob_1'
p4163
I4171
sS'vAliv_2'
p4164
I4172
sS'IyjAd_0'
p4165
I4173
sS'vAliv_1'
p4166
I4174
sS'cHnAt_0'
p4167
I4175
sS'btOkyd_0'
p4168
I2730
sS'musotaholik_1'
p4169
I4177
sS'rafAhiy~ap_1'
p4170
I4178
sS'muHotajaz_1'
p4171
I4179
sS'{iEotaqad_1'
p4172
I4180
sS'muxaS~aS_1'
p4173
I4181
sS'OglY_0'
p4174
I4182
sS'jugorAfiy~_1'
p4175
I4183
sS'AlcwAQb_0'
p4176
I4186
sS'{inoTilAq_1'
p4177
I4187
sS'murAqabap_1'
p4178
I4188
sS'Eab~As_1'
p4179
I4189
sS'SirAE_1'
p4180
I4190
sS'wIsrAQyl_0'
p4181
I4191
sS'mWAmrp_0'
p4182
I4192
sS'sA}iH_1'
p4183
I4193
sS'xaroq_1'
p4184
I4194
sS'waSal-i_1'
p4185
I4195
sS'ActrtAh_0'
p4186
I4196
sS'tuwruwnotuw_1'
p4187
I4197
sS'EirAq_1'
p4188
I4198
sS'murAfaEap_1'
p4189
I4199
sS'ckyb_0'
p4190
I4200
sS'duw_1'
p4191
I4201
sS'{iqotalaE_1'
p4192
I4202
sS'tWrqhm_0'
p4193
I4203
sS'sAq-u_1'
p4194
I2126
sS'nAmiybiyA_1'
p4195
I4205
sS'dqAQq_0'
p4196
I4206
sS'OsAmp_0'
p4197
I4207
sS'tajAhul_1'
p4198
I4208
sS'xuwriy_2'
p4199
I4209
sS'Hav~-u_1'
p4200
I4210
sS'fajor_1'
p4201
I4212
sS'ActrAky_0'
p4202
I4213
sS'fan~iy~_1'
p4203
I4214
sS'jiniyn_1'
p4204
I4215
sS'mnAqcp_0'
p4205
I4216
sS'bAkisotAn_1'
p4206
I4217
sS'AlcAgr_0'
p4207
I4218
sS'huwguw_1'
p4208
I4219
sS'IlA_0'
p4209
I4560
sS'baH~Arap_1'
p4210
I4221
sS'sAmiy_2'
p4211
I4561
sS'ISrAr_0'
p4212
I4223
sS'Iylywt_0'
p4213
I4224
sS'OwkrAnyp_0'
p4214
I4225
sS'bIrAdp_0'
p4215
I4226
sS'585_0'
p4216
I2275
sS'339_0'
p4217
I4228
sS'{ixotiyAr_1'
p4218
I4229
sS'kuwnokuwrod_1'
p4219
I4230
sS'dwAQr_0'
p4220
I4231
sS'AlbyQp_0'
p4221
I4232
sS'waqot_1'
p4222
I4233
sS'OHdv_0'
p4223
I4234
sS'nAsif_2'
p4224
I4235
sS'AtxAVhA_0'
p4225
I4236
sS'taEAwan_1'
p4226
I4237
sS'>anohaY_1'
p4227
I4238
sS'nitAnoyAhuw_1'
p4228
I4239
sS'majAl_1'
p4229
I4241
sS'IslAmyp_0'
p4230
I4242
sS'barakAt_1'
p4231
I4243
sS'OlqAhA_0'
p4232
I4244
sS'AnkfOwA_0'
p4233
I4245
sS'nayol_1'
p4234
I2352
sS'AlswC_0'
p4235
I4247
sS'xilAf_1'
p4236
I4565
sS'wilAdap_1'
p4237
I4249
sS'Hasob_1'
p4238
I4250
sS'cmEwn_0'
p4239
I5836
sS'-_0'
p4240
I2374
sS'llIVAEp_0'
p4241
I4253
sS'mctrk_0'
p4242
I4254
sS'kAtib_1'
p4243
I2397
sS'OErf_0'
p4244
I693
sS'AlIqbAl_0'
p4245
I7142
sS'interj'
p4246
I718
sS'Ohl_0'
p4247
I4259
sS'tAyolanod_1'
p4248
I4260
sS'AlcycAn_0'
p4249
I4261
sS'wHlfAQhA_0'
p4250
I4262
sS'fIn_0'
p4251
I4263
sS'cArkA_0'
p4252
I4264
sS'{it~isAE_1'
p4253
I4568
sS'{iEotiSAm_1'
p4254
I4266
sS'Haqiybap_1'
p4255
I4267
sS'taEar~uf_1'
p4256
I4268
sS'fiyl_1'
p4257
I2512
sS'yWxr_0'
p4258
I4270
sS'Hulowap_1'
p4259
I4271
sS'IzAC_0'
p4260
I4272
sS'tazAyud_1'
p4261
I3280
sS'Eiz~_1'
p4262
I4274
sS'yAbAn_1'
p4263
I4275
sS'musAfir_1'
p4264
I4276
sS'muwAfaqap_1'
p4265
I4277
sS'tuf~AH_1'
p4266
I4278
sS'Owbk_0'
p4267
I4279
sS'ObryAC_0'
p4268
I4280
sS'{iEotaSam_1'
p4269
I3282
sS'Sifap_1'
p4270
I4282
sS'EiyAr_1'
p4271
I4283
sS'tawojiyh_2'
p4272
I4284
sS'taxofiyD_1'
p4273
I4285
sS'dubay~_1'
p4274
I4286
sS'bakAluwriyA_1'
p4275
I2592
sS'jariyH_1'
p4276
I2594
sS'OkdwA_0'
p4277
I4289
sS'mukAlamap_1'
p4278
I4290
sS'AlAbtdAQyp_0'
p4279
I4291
sS'OsrwA_0'
p4280
I4292
sS'thnQ_0'
p4281
I4293
sS'32_0'
p4282
I4294
sS'AlgnAC_0'
p4283
I4295
sS'wAlOrADy_0'
p4284
I4296
sS'xaTar_1'
p4285
I7361
sS'cwATQ_0'
p4286
I4297
sS'taqar~ar_1'
p4287
I4298
sS'cAml_0'
p4288
I4300
sS'OgVyp_0'
p4289
I4301
sS'tamodiyd_1'
p4290
I4302
sS'OcAEt_0'
p4291
I4303
sS'AlOwrwby_0'
p4292
I2674
sS'wAlmsAClp_0'
p4293
I4305
sS'kuwkAyiyn_1'
p4294
I7399
sS'trcyH_0'
p4295
I4306
sS'AlOSwly_0'
p4296
I4307
sS'bAromA_1'
p4297
I4308
sS'cEv_0'
p4298
I4309
sS'Osrhm_0'
p4299
I4310
sS'Ocbh_0'
p4300
I4311
sS'cOnhA_0'
p4301
I4312
sS'AlMsywy_0'
p4302
I4313
sS'faD~_1'
p4303
I4314
sS'xTO_0'
p4304
I4315
sS'>akal~_1'
p4305
I4316
sS'taEav~ar_1'
p4306
I4317
sS'OHSyt_0'
p4307
I4318
sS'crTy_0'
p4308
I5848
sS'sinogAfuwrap_1'
p4309
I4320
sS'xal~af_1'
p4310
I4321
sS'xaw~al_1'
p4311
I723
sS'qalAyiydih_1'
p4312
I4323
sS'taZAhur_1'
p4313
I4324
sS'laEobap_1'
p4314
I4325
sS'AlcEArAt_0'
p4315
I4326
sS'AlOrbAH_0'
p4316
I4327
sS'murAEAp_1'
p4317
I4328
sS'AlTArQp_0'
p4318
I4329
sS'Hub~_1'
p4319
I728
sS'dabolin_1'
p4320
I4331
sS'mxbOh_0'
p4321
I4332
sS'Oln_0'
p4322
I4333
sS'OSdrth_0'
p4323
I4334
sS'kifAH_1'
p4324
I4335
sS'say~Af_1'
p4325
I4336
sS'safiyr_1'
p4326
I4337
sS'TaboE_1'
p4327
I4338
sS'haraE-a_1'
p4328
I4339
sS'AlOTfAl_0'
p4329
I4340
sS'wAlcywx_0'
p4330
I4341
sS'AlIrhAbyp_0'
p4331
I4342
sS'masoduwd_1'
p4332
I4344
sS'maxoTuwT_1'
p4333
I2890
sS'zirowAl_1'
p4334
I4346
sS'sAEad_1'
p4335
I4582
sS'{inoSiyAE_1'
p4336
I2907
sS'mas~-a_1'
p4337
I2914
sS'xAS~ap_1'
p4338
I4350
sS'msAC_0'
p4339
I4351
sS'naZariy~_1'
p4340
I4352
sS'Daj~-i_1'
p4341
I4353
sS'{isotimorAr_1'
p4342
I2978
sS'{inotaxab_1'
p4343
I4355
sS'tcAng_0'
p4344
I4357
sS'crwTA_0'
p4345
I4358
sS'OjrY_0'
p4346
I4359
sS'jayob_1'
p4347
I4360
sS'22_0'
p4348
I4361
sS'wObdt_0'
p4349
I4362
sS'lima_1'
p4350
I4363
sS'OvynA_0'
p4351
I4365
sS'7187_0'
p4352
I3068
sS'diyfiyd_1'
p4353
I4367
sS'AlMsywyp_0'
p4354
I4368
sS'OZhr_0'
p4355
I734
sS'minoZAr_1'
p4356
I4370
sS'tafay~a>_1'
p4357
I3092
sS'mcrd_0'
p4358
I4372
sS'wOcAr_0'
p4359
I4373
sS'HlfAC_0'
p4360
I4374
sS'franok_1'
p4361
I4375
sS'llnhAQyAt_0'
p4362
I3138
sS'tarAwaH_1'
p4363
I1941
sS'muHotarif_1'
p4364
I4377
sS'sttxV_0'
p4365
I4378
sS'EAc_0'
p4366
I4379
sS'muEad~al_1'
p4367
I584
sS'Vlk_0'
p4368
I4380
sS'AstvnAQyp_0'
p4369
I4381
sS'OmArAthm_0'
p4370
I4382
sS'jiyAnog_1'
p4371
I4383
sS'bAlEyc_0'
p4372
I4384
sS'bayoDAwiy~_1'
p4373
I4385
sS'AlbqAC_0'
p4374
I4386
sS'mutaHak~im_1'
p4375
I3201
sS'nisobiy~_1'
p4376
I4388
sS'SaHiyH_1'
p4377
I738
sS'rADiy_1'
p4378
I4390
sS'Ojrth_0'
p4379
I3221
sS'taEar~aD_1'
p4380
I4392
sS'wchd_0'
p4381
I4393
sS'Obyb_0'
p4382
I4394
sS'masAfap_1'
p4383
I4395
sS'tirosAnap_1'
p4384
I4396
sS'miHowar_1'
p4385
I5861
sS'{inoEaqad_1'
p4386
I4398
sS'mutabaq~iy_1'
p4387
I4399
sS'xAliy_1'
p4388
I4400
sS'kiyAn_1'
p4389
I5862
sS'AlfAQD_0'
p4390
I4402
sS'majiyd_2'
p4391
I4403
sS'wtOmyn_0'
p4392
I4404
sS'lisAn_1'
p4393
I4406
sS'quboruS_1'
p4394
I4407
sS'bAlIEmAr_0'
p4395
I4408
sS'sayoTar_1'
p4396
I4409
sS'rOs_0'
p4397
I4410
sS'MlAf_0'
p4398
I4411
sS'qas~am_1'
p4399
I4412
sS'Eamod_1'
p4400
I4413
sS'bruwfisuwr_1'
p4401
I4042
sS'73_0'
p4402
I4415
sS'nfwVhA_0'
p4403
I4416
sS'Alcrf_0'
p4404
I3402
sS'synfV_0'
p4405
I4418
sS'EAQlAthm_0'
p4406
I3304
sS'madoEuw~_1'
p4407
I4420
sS'HVrt_0'
p4408
I4421
sS'dAr-u_1'
p4409
I4422
sS'AlIfryqy_0'
p4410
I4423
sS'karam_2'
p4411
I4424
sS'talobiyap_1'
p4412
I4425
sS'wAfaq_1'
p4413
I4426
sS'mutawar~iT_1'
p4414
I4427
sS'Eajiz-a_1'
p4415
I4428
sS'mukaw~an_1'
p4416
I4429
sS'guwrAn_1'
p4417
I4185
sS'sAl-i_1'
p4418
I4431
sS'mutafaw~iq_1'
p4419
I4432
sS'OrjAQhA_0'
p4420
I4433
sS'rQysyp_0'
p4421
I4435
sS'xilAla_1'
p4422
I4436
sS'wtOmn_0'
p4423
I4437
sS'magoribiy~_1'
p4424
I4438
sS'wwrAC_0'
p4425
I4439
sS'IlyAn_0'
p4426
I3307
sS'takal~al_1'
p4427
I4441
sS'{it~ihAm_1'
p4428
I4442
sS'AlIcrAk_0'
p4429
I4443
sS'saHab-a_1'
p4430
I4444
sS'AlcOn_0'
p4431
I4445
sS'HisAb_2'
p4432
I5870
sS'SaHAfap_1'
p4433
I3532
sS'>aEoTaY_1'
p4434
I4448
sS'AlOwl_0'
p4435
I4449
sS'miylAdiy~_1'
p4436
I4450
sS'sAEap_1'
p4437
I4451
sS'AlmsAC_0'
p4438
I3563
sS'noun'
p4439
I1
sS'xafaD-i_1'
p4440
I4453
sS'jumoruk_1'
p4441
I4454
sS'Sawot_1'
p4442
I4455
sS'taSal~aY_1'
p4443
I4456
sS'maEoruwf_1'
p4444
I4457
sS'buwluwniyA_1'
p4445
I4458
sS'sluwbuwdAn_1'
p4446
I4459
sS'quw~ap_1'
p4447
I4460
sS'riyynA_1'
p4448
I4461
sS'AlsynmAQy_0'
p4449
I43
sS'sakat-u_1'
p4450
I4463
sS'qunobulap_1'
p4451
I4464
sS'Habok_1'
p4452
I4596
sS'1978_0'
p4453
I4466
sS'bAlOrD_0'
p4454
I4467
sS'qatol_1'
p4455
I4468
sS'hAfAnA_1'
p4456
I4469
sS'ruwsiyA_1'
p4457
I4470
sS'mawokib_1'
p4458
I4471
sS'bAsiyl_1'
p4459
I4472
sS'wAlcEwb_0'
p4460
I4474
sS'AlIybwlA_0'
p4461
I4475
sS'wIlY_0'
p4462
I4476
sS'qaSaf-i_1'
p4463
I4477
sS'crEyp_0'
p4464
I4478
sS'qaSad-i_1'
p4465
I4479
sS'wOETt_0'
p4466
I4480
sS'AlmHAVy_0'
p4467
I4481
sS'mQp_0'
p4468
I4482
sS'tabay~an_1'
p4469
I4483
sS'tawAzun_1'
p4470
I4484
sS'AlOqSY_0'
p4471
I4485
sS'ODrArA_0'
p4472
I4486
sS'IqAmp_0'
p4473
I754
sS'OjrAh_0'
p4474
I4488
sS'Alryc_0'
p4475
I4489
sS'AlnAQb_0'
p4476
I4490
sS'ham~_1'
p4477
I4491
sS'majodiy_1'
p4478
I4492
sS'buwAfiysotA_1'
p4479
I4493
sS'saEAdap_1'
p4480
I4494
sS'mAniylA_1'
p4481
I4495
sS'{ixotiSAS_1'
p4482
I4496
sS'saEAdap_2'
p4483
I4497
sS'Onhm_0'
p4484
I4498
sS'mulozam_1'
p4485
I4499
sS'>aEofaY_1'
p4486
I3863
sS'daworap_1'
p4487
I4501
sS'IDAfyA_0'
p4488
I5882
sS'{ivonayoni_1'
p4489
I4503
sS'raEiy~ap_1'
p4490
I4504
sS'crkAQnA_0'
p4491
I4505
sS'hMrts_0'
p4492
I4506
sS'fwAQd_0'
p4493
I4507
sS'bariyd_1'
p4494
I4508
sS'takoriys_1'
p4495
I4509
sS'bar~ar_1'
p4496
I4510
sS'mumar~iD_1'
p4497
I4511
sS'jzCA_0'
p4498
I4512
sS'muwruw_1'
p4499
I4513
sS'baraz-u_1'
p4500
I4514
sS'Eiroqiy~_1'
p4501
I4515
sS'IlY_0'
p4502
I4516
sS'bIncAC_0'
p4503
I4517
sS'{inotahaY_1'
p4504
I4518
sS'>adolaY_1'
p4505
I3967
sS'OnmAT_0'
p4506
I4520
sS'zAmobuwAnogA_1'
p4507
I4521
sS'kamobyuwtir_1'
p4508
I4522
sS'HAl-u_1'
p4509
I4523
sS'wAlIblAg_0'
p4510
I4524
sS'sycdd_0'
p4511
I4525
sS'Tawoq_1'
p4512
I4526
sS'yuwniysif_1'
p4513
I4527
sS'EAbiq_1'
p4514
I4528
sS'{irotaDaY_1'
p4515
I4529
sS'64_0'
p4516
I4530
sS'xiDam~_1'
p4517
I4531
sS'AlbnAC_0'
p4518
I4532
sS'Eumar_1'
p4519
I4533
sS'{ilotaHam_1'
p4520
I4534
sS'AltcryEAt_0'
p4521
I4063
sS'Had~Ad_2'
p4522
I4536
sS'bIySAl_0'
p4523
I4537
sS'lAQHp_0'
p4524
I4538
sS'AlchAdAt_0'
p4525
I4082
sS'riDowAn_1'
p4526
I4540
sS'Eakas-i_1'
p4527
I4541
sS'OEmAlhA_0'
p4528
I4542
sS'4690_0'
p4529
I4543
sS'+_0'
p4530
I4545
sS'crAktnA_0'
p4531
I4546
sS'kanadiy~_1'
p4532
I4547
sS'OHkAmA_0'
p4533
I4548
sS'tamarokaz_1'
p4534
I4549
sS'taqoriyr_1'
p4535
I4163
sS'ZAhirap_1'
p4536
I4551
sS'OHd_0'
p4537
I4552
sS'raDiy-a_1'
p4538
I4553
sS'xuwriy_1'
p4539
I4555
sS'TAl-u_1'
p4540
I4556
sS'{ibotisAmap_1'
p4541
I4609
sS'cAErA_0'
p4542
I4558
sS'AlOstrAlyp_0'
p4543
I4559
sS'sAmiy_1'
p4544
I1797
sS'AlIfTAr_0'
p4545
I4222
sS'TAQrth_0'
p4546
I4562
sS'OqAmwA_0'
p4547
I5891
sS'Eakosiy~_1'
p4548
I4564
sS'Idmwn_0'
p4549
I4248
sS'AltOkyd_0'
p4550
I4566
sS'TwArQ_0'
p4551
I4567
sS'labis-a_1'
p4552
I4265
sS'Olzm_0'
p4553
I4569
sS'maHosuwbiy~ap_1'
p4554
I4570
sS'minaY_1'
p4555
I4571
sS'AlOrxbyl_0'
p4556
I4572
sS'muHArabap_1'
p4557
I4573
sS'hayomanap_1'
p4558
I5893
sS'taHaw~al_1'
p4559
I4575
sS'bArAk_1'
p4560
I4577
sS'{inoTalaq_1'
p4561
I4578
sS'wAlmWtmr_0'
p4562
I4579
sS'dawolap_1'
p4563
I4580
sS'wchwd_0'
p4564
I4347
sS'gdAC_0'
p4565
I4583
sS'Hur~iy~ap_1'
p4566
I4584
sS'{igotiyAl_1'
p4567
I4585
sS'mumav~il_1'
p4568
I4586
sS'{isotahodaf_1'
p4569
I4587
sS'OnhY_0'
p4570
I4588
sS'taloxiyS_1'
p4571
I4589
sS'HArab_1'
p4572
I4590
sS'rcwthm_0'
p4573
I4591
sS'taHas~un_1'
p4574
I4592
sS'tlAmVp_0'
p4575
I4593
sS'AlhAdQ_0'
p4576
I4594
sS'{ifotitAH_1'
p4577
I4595
sS'Ornhm_0'
p4578
I4465
sS'finolanodA_1'
p4579
I4597
sS'AlOfryqy_0'
p4580
I7008
sS'OnTwlwjyA_0'
p4581
I4598
sS'bOVnyk_0'
p4582
I4599
sS'lIqnAE_0'
p4583
I4600
sS'yasAriy~_1'
p4584
I4601
sS'xaTowap_1'
p4585
I4602
sS'wAlOmyrktAn_0'
p4586
I4603
sS'wAlImArAt_0'
p4587
I4604
sS'cwArEhA_0'
p4588
I4605
sS'tahodiyd_1'
p4589
I4606
sS'EAraD_1'
p4590
I4607
sS'faqad-i_1'
p4591
I4608
sS'miHonap_1'
p4592
I512
sS'{isotiEomAl_1'
p4593
I4610
sS'AlfyzyAC_0'
p4594
I4611
sS'difAE_1'
p4595
I4612
sS'AlOxDr_0'
p4596
I4613
sS'mAE-i_1'
p4597
I4615
sS'AlhyQp_0'
p4598
I4616
sS'suwq_1'
p4599
I2815
sS'mOzq_0'
p4600
I4618
sS'muqotaSir_1'
p4601
I4620
sS'AlOSl_0'
p4602
I4621
sS'wAlOmyn_0'
p4603
I4622
sS'msWwlyth_0'
p4604
I4623
sS'OdwAr_0'
p4605
I4624
sS'ynAcd_0'
p4606
I4625
sS'{irotikAz_1'
p4607
I4626
sS'qim~ap_1'
p4608
I7644
sS'maHoduwd_1'
p4609
I4627
sS'OwqE_0'
p4610
I4628
sS'wOn_0'
p4611
I4629
sS'qAQmA_0'
p4612
I4630
sS'musotahodaf_1'
p4613
I4631
sS'mVkrA_0'
p4614
I4632
sS'13_0'
p4615
I4633
sS'tadomiyr_1'
p4616
I4634
sS'AlIjrACAt_0'
p4617
I4635
sS'tOxyr_0'
p4618
I4636
sS'DAHiyap_1'
p4619
I4637
sS'muHiyT_1'
p4620
I4638
sS'midofaE_1'
p4621
I4639
sS'munofatiH_1'
p4622
I4640
sS'dAcl_0'
p4623
I4641
sS'IbTAl_0'
p4624
I4642
sS'bVl_0'
p4625
I4643
sS'lOnnA_0'
p4626
I6799
sS'tajas~ad_1'
p4627
I4644
sS'AlxwAC_0'
p4628
I4645
sS'katom_1'
p4629
I4646
sS'OkcAy_0'
p4630
I4647
sS'diyb_1'
p4631
I4648
sS'mataY_1'
p4632
I4649
sS'siy~amA_1'
p4633
I4650
sS'{it~ijAh_1'
p4634
I4651
sS'cnhA_0'
p4635
I4652
sS'faxor_2'
p4636
I4653
sS'baHoriy~ap_1'
p4637
I4655
sS'maroyam_1'
p4638
I4656
sS'fataY_1'
p4639
I4657
sS'AlImkAnAt_0'
p4640
I4658
sS'maqar~_1'
p4641
I5912
sS'gas~An_1'
p4642
I4660
sS'libAs_1'
p4643
I4661
sS'wnmAVj_0'
p4644
I4662
sS'tawotiyr_1'
p4645
I4663
sS'tibAE_1'
p4646
I5914
sS'sAham_1'
p4647
I5915
sS'{ifotataH_1'
p4648
I4665
sS'wAlOjwAC_0'
p4649
I4666
sS'AlIqlymyp_0'
p4650
I4667
sS'Olbrtw_0'
p4651
I4668
sS'fuHayoS_1'
p4652
I4980
sS'lIEdAd_0'
p4653
I4670
sS'daEiyE_1'
p4654
I3348
sS'>aloqaY_1'
p4655
I4672
sS'binot_1'
p4656
I4673
sS'wOy_0'
p4657
I4674
sS'mulotahib_1'
p4658
I4675
sS'gAluw_1'
p4659
I4676
sS'llrOy_0'
p4660
I4677
sS'{inofak~_1'
p4661
I4678
sS'zawoj_1'
p4662
I4679
sS'{iDoTar~_1'
p4663
I4680
sS'AlIdAryp_0'
p4664
I4681
sS'Hubayoqap_1'
p4665
I4682
sS'kuboraY_1'
p4666
I4683
sS'Haram_1'
p4667
I4684
sS'Haram_2'
p4668
I4685
sS'gAroniyt_1'
p4669
I4686
sS'wOnA_0'
p4670
I4687
sS'30_21_0'
p4671
I5032
sS'muSan~af_1'
p4672
I4688
sS'AlcElp_0'
p4673
I5102
sS'AlOdnY_0'
p4674
I4690
sS'ray~AF_1'
p4675
I4691
sS'gAlib_1'
p4676
I4692
sS'nafA-u_1'
p4677
I4694
sS'{irotafaE_1'
p4678
I4695
sS'{ijotamaE_1'
p4679
I4696
sS'xawoD_1'
p4680
I4697
sS'{iHotiyAT_1'
p4681
I4698
sS'IdAnp_0'
p4682
I7601
sS'taSaw~ar_1'
p4683
I4700
sS'jnAQyp_0'
p4684
I4701
sS'wOrmynyA_0'
p4685
I4702
sS'AlOHrAr_0'
p4686
I5152
sS'OEDAC_0'
p4687
I4704
sS'taday~un_1'
p4688
I4705
sS'qiyAsiy~_1'
p4689
I4706
sS'Hadav-u_1'
p4690
I4707
sS'riDaY_1'
p4691
I4708
sS'varowap_1'
p4692
I4709
sS'OHkAm_0'
p4693
I4710
sS'baEovap_1'
p4694
I4711
sS'mlAQm_0'
p4695
I4712
sS'06_15_0'
p4696
I7609
sS'1.5_0'
p4697
I4713
sS'Eariyq_1'
p4698
I4714
sS'mudAfiE_1'
p4699
I4715
sS'glAsokuw_1'
p4700
I4716
sS'Hasab_1'
p4701
I4717
sS'mWcr_0'
p4702
I4718
sS'AlOsAsyp_0'
p4703
I4719
sS'xaraj-u_1'
p4704
I4720
sS'kriystiy_1'
p4705
I4721
sS'mutAbaEap_1'
p4706
I4722
sS'qar~ar_1'
p4707
I4723
sS'AlIntAj_0'
p4708
I5922
sS'AltOhl_0'
p4709
I7220
sS'gan~_1'
p4710
I4726
sS'rafaH_1'
p4711
I4727
sS'mut~aham_1'
p4712
I4728
sS'Eiborap_1'
p4713
I4729
sS'AlActrAkyyn_0'
p4714
I5923
sS'lAjQp_0'
p4715
I4730
sS'cxSA_0'
p4716
I4731
sS'furoSap_1'
p4717
I4732
sS'IntrfAks_0'
p4718
I4733
sS'yatim-a_1'
p4719
I4734
sS'Tufuwlap_1'
p4720
I4735
sS'1981_0'
p4721
I4736
sS'muxAbarAt_1'
p4722
I4737
sS'munotaxab_1'
p4723
I4738
sS'tawoqiyf_1'
p4724
I4739
sS'liyuwboliyAnA_1'
p4725
I4740
sS'qAsim_1'
p4726
I4742
sS'maSodar_1'
p4727
I4743
sS'HaZiy-a_1'
p4728
I4744
sS'wAlOmwmp_0'
p4729
I4745
sS'riDA_1'
p4730
I4746
sS'rukon_1'
p4731
I4747
sS'tuwniy_1'
p4732
I4748
sS'AltcryEyp_0'
p4733
I4749
sS'ActrAhA_0'
p4734
I4750
sS'khrbAQyp_0'
p4735
I4751
sS'wlAQHp_0'
p4736
I4752
sS'AlOTbAC_0'
p4737
I4753
sS'AlIfrAj_0'
p4738
I5930
sS'HAfiZ_2'
p4739
I4755
sS'AlIsrAQyly_0'
p4740
I4756
sS'taTar~aq_1'
p4741
I4757
sS'Harobiy~_1'
p4742
I4758
sS'kAmob_1'
p4743
I4759
sS'xayobap_1'
p4744
I4760
sS'dirobak~ap_1'
p4745
I4761
sS'barobArA_1'
p4746
I4762
sS'Talaq_1'
p4747
I3361
sS'mufotaraD_1'
p4748
I4764
sS'mal~-a_1'
p4749
I4765
sS'cEArhA_0'
p4750
I4766
sS'fiymA_3'
p4751
I4767
sS'fiyyin~A_1'
p4752
I5550
sS'tafaw~aq_1'
p4753
I4769
sS'wtOty_0'
p4754
I4770
sS'mutaEad~id_1'
p4755
I4771
sS'Sar~aH_1'
p4756
I4772
sS'AlEcr_0'
p4757
I4773
sS'musotawaY_1'
p4758
I3363
sS'xAn_1'
p4759
I5933
sS'taEomiym_1'
p4760
I4776
sS'Owrwbyp_0'
p4761
I4777
sS'hunA_1'
p4762
I4778
sS'tanah~ud_1'
p4763
I4779
sS'lOsAbyE_0'
p4764
I3364
sS'mabolag_1'
p4765
I4781
sS'wlOkvr_0'
p4766
I4782
sS'kcf_0'
p4767
I4783
sS'fAz-u_1'
p4768
I4784
sS'jwAQzhA_0'
p4769
I4785
sS'AlITAHp_0'
p4770
I4787
sS'Onjls_0'
p4771
I4788
sS'AlOnqAD_0'
p4772
I4789
sS'AlVhb_0'
p4773
I4790
sS'lOsTwl_0'
p4774
I4791
sS'>alogaY_1'
p4775
I4792
sS'wtcjyE_0'
p4776
I4793
sS'kaviyr_1'
p4777
I4794
sS'OHAlt_0'
p4778
I4795
sS'bAQtlAf_0'
p4779
I1420
sS'bIbqAC_0'
p4780
I4796
sS'darajap_1'
p4781
I4797
sS'cEAQrhm_0'
p4782
I4798
sS'kyncAsA_0'
p4783
I5938
sS'Hadiyd_1'
p4784
I4800
sS'AlOrjntyny_0'
p4785
I4802
sS'{inotiqAd_1'
p4786
I4803
sS'jabora}iyl_1'
p4787
I4804
sS'AlcywEy_0'
p4788
I4805
sS'HAdiy_2'
p4789
I4806
sS'lOn_0'
p4790
I4807
sS'taSofiyq_1'
p4791
I4808
sS'jaraY-i_1'
p4792
I4809
sS'TabiyEiy~_1'
p4793
I4810
sS'muDAf_1'
p4794
I4811
sS'Sifor_1'
p4795
I4812
sS'taHoTiym_1'
p4796
I4813
sS'muruwnap_1'
p4797
I4814
sS'wAlOmn_0'
p4798
I4815
sS'IzAlp_0'
p4799
I4816
sS'bAlcrwT_0'
p4800
I4817
sS'AlOxyrAn_0'
p4801
I4818
sS'mad~-u_1'
p4802
I4819
sS'funoduq_1'
p4803
I4820
sS'llIqAmp_0'
p4804
I4821
sS'muqobil_1'
p4805
I4822
sS'tarowiyj_1'
p4806
I4823
sS'muqotaraH_2'
p4807
I4825
sS'AlOflAm_0'
p4808
I4826
sS'muwAzanap_1'
p4809
I4827
sS'sAHap_1'
p4810
I4828
sS'{izodAd_1'
p4811
I4829
sS'850_0'
p4812
I4830
sS'niykuwlA_1'
p4813
I4831
sS'hArib_1'
p4814
I4832
sS'OwlY_0'
p4815
I4833
sS'nAHiyap_1'
p4816
I4834
sS'Eaqiyd_1'
p4817
I4835
sS'lhVA_0'
p4818
I4836
sS'qaroyap_1'
p4819
I4837
sS'wIywAC_0'
p4820
I4838
sS'muEAriD_1'
p4821
I3378
sS'bAlOjhzp_0'
p4822
I4839
sS'qaluwb_1'
p4823
I4840
sS'tamowiyniy~_1'
p4824
I4841
sS'lAtxAV_0'
p4825
I4842
sS'wAlmWllp_0'
p4826
I4843
sS'AlmVkwrp_0'
p4827
I4844
sS'Zulom_1'
p4828
I4845
sS'AlOhm_0'
p4829
I4846
sS'may~it_1'
p4830
I4847
sS'qSAQdhA_0'
p4831
I4848
sS'AlmcklAt_0'
p4832
I4849
sS'wOZhr_0'
p4833
I4850
sS'muHAwir_1'
p4834
I4851
sS'tabiEap_1'
p4835
I4852
sS'mawosim_1'
p4836
I4853
sS'lcbkp_0'
p4837
I4854
sS'{isotaqar~_1'
p4838
I4855
sS'SarAHap_1'
p4839
I4856
sS'lAndctwl_0'
p4840
I3382
sS'AlcAb_0'
p4841
I4858
sS'wOTAH_0'
p4842
I4859
sS'IblAlh_0'
p4843
I4860
sS'AlOwstrAlyp_0'
p4844
I4861
sS'AlOxbAr_0'
p4845
I2137
sS'bAwil_1'
p4846
I4862
sS'AlfwAQd_0'
p4847
I4863
sS'wAlgAQb_0'
p4848
I4864
sS'msWwlyn_0'
p4849
I5950
sS'muqAm_1'
p4850
I4867
sS'wAlcrwE_0'
p4851
I4868
sS'Alcyn_0'
p4852
I4869
sS'kuwlin_1'
p4853
I4870
sS'kluwb_1'
p4854
I4871
sS'busotAniy~_1'
p4855
I4872
sS'EanaY-i_1'
p4856
I4873
sS'96_0'
p4857
I4874
sS'jAd~_1'
p4858
I4875
sS'mawoSuwl_1'
p4859
I4876
sS'AlnfwV_0'
p4860
I4877
sS'AlOsrp_0'
p4861
I7035
sS'cAhryn_0'
p4862
I4878
sS'qaToEap_1'
p4863
I4879
sS'nASiriy~_1'
p4864
I4880
sS'mAncstr_0'
p4865
I4881
sS'"_0'
p4866
I4882
sS'mAl_1'
p4867
I4883
sS'biyrotiy_1'
p4868
I4884
sS'fluwriydA_1'
p4869
I4885
sS'Eadon_1'
p4870
I4886
sS'muwaf~aq_1'
p4871
I4887
sS'Ojl_0'
p4872
I4888
sS'zAd-i_1'
p4873
I4889
sS'hirosik_1'
p4874
I4890
sS'tcwyh_0'
p4875
I4891
sS'qaSiydap_1'
p4876
I4109
sS'naqol_1'
p4877
I4893
sS'Eumoq_1'
p4878
I4894
sS'OnbAC_0'
p4879
I4895
sS'raH~ab_1'
p4880
I4896
sS'liyuwniyl_1'
p4881
I4897
sS'AlIyTAlyp_0'
p4882
I4898
sS'AlmsWwlyn_0'
p4883
I2147
sS'nfV_0'
p4884
I4900
sS'xiyAr_1'
p4885
I4901
sS'suEuwd_1'
p4886
I4902
sS'jAC_0'
p4887
I4903
sS'AlnhAQyAt_0'
p4888
I4904
sS'DAq_1'
p4889
I4905
sS'AlOms_0'
p4890
I4906
sS'{irotAd_1'
p4891
I4907
sS'qaDaY-i_1'
p4892
I4908
sS'Zarof_3'
p4893
I4909
sS'Zarof_1'
p4894
I3963
sS'AlOmAkn_0'
p4895
I4911
sS'hiya_1'
p4896
I4912
sS'Hizob_1'
p4897
I5960
sS'tawAfuq_1'
p4898
I4914
sS'DaboT_1'
p4899
I4915
sS'bitoruwstrAtiyjiy_1'
p4900
I4916
sS'sa>al-a_1'
p4901
I4917
sS'cAQkp_0'
p4902
I4918
sS'yOt_0'
p4903
I4919
sS'AlIElAn_0'
p4904
I4920
sS'maroHalap_1'
p4905
I4921
sS'tabax~ar_1'
p4906
I4922
sS'Saw~ar_1'
p4907
I4923
sS'xul~abiy~_1'
p4908
I4924
sS'Obw_0'
p4909
I4925
sS'faHoS_1'
p4910
I4926
sS'faHoS_2'
p4911
I4928
sS'fAr~_1'
p4912
I4929
sS'fAr~_2'
p4913
I4930
sS'SAdir_1'
p4914
I4931
sS'wOEDAC_0'
p4915
I5963
sS'milaf~_1'
p4916
I4933
sS'minoTaqap_1'
p4917
I4934
sS'muqAbalap_1'
p4918
I4935
sS'kanadA_1'
p4919
I4936
sS'tuwnisiy~_1'
p4920
I4937
sS'saw~Aq_1'
p4921
I4938
sS'niyuwdilohiy_1'
p4922
I4939
sS'fiydirAliy~_1'
p4923
I4940
sS'AlOnZmp_0'
p4924
I4941
sS'samAE_1'
p4925
I4942
sS'TAQfy_0'
p4926
I4943
sS'naqal-u_1'
p4927
I4944
sS'{it~iHAd_1'
p4928
I5966
sS'jAnib_1'
p4929
I4946
sS'bikiyn_1'
p4930
I4947
sS'jaziyrap_1'
p4931
I4539
sS'zaEAmap_1'
p4932
I4948
sS'IncAC_0'
p4933
I4949
sS'mar~ar_1'
p4934
I4950
sS'Sarof_1'
p4935
I4951
sS'tatab~aE_1'
p4936
I4952
sS'nabaE-uia_1'
p4937
I4953
sS'AlImArAt_0'
p4938
I4954
sS'taTobiyqiy~_1'
p4939
I4955
sS'mchd_0'
p4940
I4956
sS'AlEcryn_0'
p4941
I5970
sS'xafoD_1'
p4942
I4958
sS'{inogilAq_1'
p4943
I4959
sS'niyuw_1'
p4944
I4960
sS'AlcmAl_0'
p4945
I4032
sS'AlOrcyf_0'
p4946
I4961
sS'{ijotiyAH_1'
p4947
I4962
sS'AlmsAQl_0'
p4948
I4963
sS'IslAmyyn_0'
p4949
I4964
sS'Eayob_1'
p4950
I4965
sS'AnthAQhA_0'
p4951
I4966
sS'{inoTabaq_1'
p4952
I4967
sS'jinAyap_1'
p4953
I5566
sS'Saf~_1'
p4954
I4968
sS'EabodAll~`h_1'
p4955
I4969
sS'mtOvrA_0'
p4956
I4970
sS'qabaliy~_1'
p4957
I4971
sS'msWwlyAth_0'
p4958
I4972
sS'mawojuwd_1'
p4959
I4973
sS'muxaT~aT_1'
p4960
I4974
sS'tanAsaY_1'
p4961
I4975
sS'bAltOkyd_0'
p4962
I4976
sS'rajA-u_1'
p4963
I4977
sS'HifAZ_1'
p4964
I4978
sS'IrhAb_0'
p4965
I4979
sS'mar~-u_1'
p4966
I4669
sS'qAQlh_0'
p4967
I4981
sS'{ixotaTaf_1'
p4968
I4982
sS'midoyap_1'
p4969
I4983
sS'jabAn_1'
p4970
I4984
sS'lInhAD_0'
p4971
I4985
sS'HaD~ar_1'
p4972
I4986
sS'1995_0'
p4973
I4987
sS'67_5_0'
p4974
I6784
sS'muqAbil_1'
p4975
I4988
sS'faqorap_1'
p4976
I4989
sS'mabar~ap_1'
p4977
I4990
sS'hujuwmiy~_1'
p4978
I5920
sS'SaEob_1'
p4979
I4991
sS'wwAcnTn_0'
p4980
I4992
sS'luwfr_1'
p4981
I4993
sS'waqofap_1'
p4982
I4994
sS'faZ~_1'
p4983
I4995
sS'OmyrkyA_0'
p4984
I4996
sS'xAsir_1'
p4985
I4997
sS'IslAm_0'
p4986
I4998
sS'bAlImkAn_0'
p4987
I4999
sS'waDaE_1'
p4988
I5000
sS'miToHanap_1'
p4989
I5001
sS'wmycAl_0'
p4990
I7263
sS'buz~_1'
p4991
I5004
sS'niDAl_2'
p4992
I5005
sS'{irotad~_1'
p4993
I5006
sS'nAEim_1'
p4994
I5007
sS'maxATir_1'
p4995
I3135
sS'ncATAt_0'
p4996
I5009
sS'hibap_1'
p4997
I7264
sS'ruxoSap_1'
p4998
I5011
sS'lanodan_1'
p4999
I5012
sS'juroH_1'
p5000
I5013
sS'zuhuwr_1'
p5001
I5014
sS'Owlyp_0'
p5002
I5015
sS'Owf_0'
p5003
I5978
sS'AlOhrAmAt_0'
p5004
I5017
sS'42_0'
p5005
I5018
sS'Al~a*iy_1'
p5006
I1565
sS'mumaw~il_1'
p5007
I5019
sS'rQysp_0'
p5008
I5020
sS'TAbiEap_1'
p5009
I5022
sS'crkAt_0'
p5010
I5023
sS'gAz_1'
p5011
I5024
sS'mWssp_0'
p5012
I5025
sS'VAthA_0'
p5013
I5027
sS'wOwDH_0'
p5014
I5028
sS'buwrotuw_1'
p5015
I5029
sS'sawofa_1'
p5016
I5030
sS'rQysh_0'
p5017
I5033
sS'OstAVA_0'
p5018
I5034
sS'AlOHd_0'
p5019
I5036
sS'OrADyh_0'
p5020
I5037
sS'mamar~_2'
p5021
I5038
sS'hAQl_0'
p5022
I5039
sS'xA}in_1'
p5023
I5040
sS'tam~-i_1'
p5024
I5041
sS'ncr_0'
p5025
I5042
sS'cmlthm_0'
p5026
I5043
sS'rOyy_0'
p5027
I5044
sS'OrjAC_0'
p5028
I5045
sS'duwn_1'
p5029
I5046
sS'jVry_0'
p5030
I5047
sS'h`*A_1'
p5031
I5048
sS'wAqiE_1'
p5032
I5050
sS'wAqiE_2'
p5033
I5051
sS'rQysy_0'
p5034
I5052
sS'klAws_1'
p5035
I5053
sS'9_0'
p5036
I3415
sS'lrQys_0'
p5037
I5055
sS'qariyb_1'
p5038
I5056
sS'mAriy_1'
p5039
I5057
sS'madoraj_1'
p5040
I7270
sS'AlOjwAC_0'
p5041
I5059
sS'wAllAjQyn_0'
p5042
I5060
sS'muHAkamap_1'
p5043
I5061
sS'mulotazim_1'
p5044
I5062
sS'xar~Aziy~_1'
p5045
I5063
sS'qiSAS_1'
p5046
I5064
sS'cHrwr_0'
p5047
I5065
sS'Il_0'
p5048
I5066
sS'garaq_1'
p5049
I7271
sS'wtchd_0'
p5050
I5068
sS'OSbH_0'
p5051
I5069
sS'maEobad_1'
p5052
I5070
sS'taEar~uD_1'
p5053
I5071
sS'bayoniy~_1'
p5054
I5072
sS'AlVhbyp_0'
p5055
I4287
sS'wmylycyAt_0'
p5056
I5073
sS'AlfAQdp_0'
p5057
I5074
sS'muEal~iq_1'
p5058
I5075
sS'vAbitap_1'
p5059
I5076
sS'tawAjah_1'
p5060
I5077
sS'IDAfyp_0'
p5061
I5078
sS'{it~afaq_1'
p5062
I5079
sS'IrhAbyn_0'
p5063
I5080
sS'AlmOmwnp_0'
p5064
I7442
sS'AlOzrq_0'
p5065
I5082
sS'nabiyl_2'
p5066
I5083
sS'AlknAQs_0'
p5067
I5084
sS'taxofiyf_1'
p5068
I5085
sS'nabiyl_1'
p5069
I5086
sS'jazar_1'
p5070
I5087
sS'mbdQyA_0'
p5071
I5088
sS'jAz-u_1'
p5072
I5090
sS'AlOnADwl_0'
p5073
I5091
sS'ckrh_0'
p5074
I5092
sS'Tuwl_1'
p5075
I5093
sS'srnycyk_0'
p5076
I5094
sS'wOTlqt_0'
p5077
I5095
sS'OxfAhA_0'
p5078
I5096
sS'ObnAC_0'
p5079
I5097
sS'OnAsA_0'
p5080
I5098
sS'tamav~al_1'
p5081
I5099
sS'AlwzrAC_0'
p5082
I5100
sS'nfVh_0'
p5083
I5101
sS'Hakam_2'
p5084
I4689
sS'rafoD_1'
p5085
I5103
sS'frAnos_1'
p5086
I5104
sS'120_0'
p5087
I5105
sS'Iygwr_0'
p5088
I5106
sS'waz~aE_1'
p5089
I5107
sS'qaSof_1'
p5090
I5108
sS'dafon_1'
p5091
I5109
sS'rytcArd_0'
p5092
I850
sS'mukar~ar_1'
p5093
I5112
sS'rWyp_0'
p5094
I5113
sS'madorasap_1'
p5095
I5114
sS'mWkdp_0'
p5096
I5115
sS'muwaj~ah_1'
p5097
I5998
sS'Mb_0'
p5098
I5116
sS'musoEad_1'
p5099
I5117
sS'37_0'
p5100
I5118
sS'EbC_0'
p5101
I5119
sS'harAwiy_1'
p5102
I5120
sS'nAxib_1'
p5103
I5121
sS'burotugAliy~_1'
p5104
I5122
sS'biyriys_1'
p5105
I5123
sS'AlktAQbyp_0'
p5106
I5124
sS'AlnmAVj_0'
p5107
I5125
sS'{inoqilAb_1'
p5108
I5126
sS'fat~AH_1'
p5109
I5127
sS'dhcth_0'
p5110
I5128
sS'guwr_1'
p5111
I5129
sS'Almncgl_0'
p5112
I7453
sS'wOvnY_0'
p5113
I5130
sS'crqA_0'
p5114
I5131
sS'xaliyjiy~_2'
p5115
I2989
sS'xudoEap_1'
p5116
I83
sS'fax~_1'
p5117
I5133
sS'taHoDiyr_1'
p5118
I5134
sS'fataH-a_1'
p5119
I5135
sS'muSAdaqap_1'
p5120
I5136
sS'ri}ap_1'
p5121
I5137
sS'Husayoniy~_1'
p5122
I5138
sS'81_0'
p5123
I5139
sS'wAlIHSACAt_0'
p5124
I5140
sS'AlIstrAtyjyp_0'
p5125
I5141
sS'tcr_0'
p5126
I6004
sS'EAQdA_0'
p5127
I5143
sS'taHoriyD_1'
p5128
I5144
sS'ITArAt_0'
p5129
I5145
sS'tanAfus_1'
p5130
I5146
sS'447_0'
p5131
I5147
sS'gaT~aY_1'
p5132
I5148
sS'HrAQq_0'
p5133
I5149
sS'Eubayod_1'
p5134
I5150
sS'Ilywcn_0'
p5135
I4703
sS'baHor_1'
p5136
I5153
sS'HaSiylap_1'
p5137
I5154
sS'Altcyly_0'
p5138
I5155
sS'damawiy~_1'
p5139
I5156
sS'wasiyT_1'
p5140
I5157
sS'manokuwb_2'
p5141
I5158
sS'wIxSAQyy_0'
p5142
I5159
sS'lltlAmVp_0'
p5143
I5160
sS'>ahodar_1'
p5144
I5161
sS'IfryqyA_0'
p5145
I5162
sS'Sad~-u_1'
p5146
I5163
sS'4_0'
p5147
I5164
sS'majohuwl_1'
p5148
I5165
sS'maSaf~_2'
p5149
I2196
sS'fiyAlly_1'
p5150
I5167
sS'qADiy_2'
p5151
I5168
sS'qarawiy~_2'
p5152
I5169
sS'qADiy_1'
p5153
I5170
sS'OnTwAn_0'
p5154
I5171
sS'HaZor_1'
p5155
I5172
sS'murotAH_1'
p5156
I5173
sS'wycArk_0'
p5157
I5174
sS'AlOmyn_0'
p5158
I5175
sS'xwAn_1'
p5159
I5176
sS'AlVryp_0'
p5160
I5177
sS'xalaS-u_1'
p5161
I5178
sS'msWwly_0'
p5162
I3321
sS'majohuwd_1'
p5163
I5180
sS'wrQys_0'
p5164
I5181
sS'bwc_0'
p5165
I5182
sS'nab~ah_1'
p5166
I5183
sS'mubAdarap_1'
p5167
I5184
sS'{irotijAliy~_1'
p5168
I6007
sS'stiyfAn_1'
p5169
I5186
sS'AlvnAQy_0'
p5170
I5187
sS'tayaq~an_1'
p5171
I5188
sS'AstcArth_0'
p5172
I5189
sS'Omrt_0'
p5173
I5190
sS'jidAr_1'
p5174
I5191
sS'hVAn_0'
p5175
I5192
sS'OwzbkstAn_0'
p5176
I5193
sS'jawAz_1'
p5177
I5194
sS'mAyokruwsuwft_1'
p5178
I5195
sS'OcATrh_0'
p5179
I5196
sS'OnSAr_0'
p5180
I5197
sS'OwlmbyAd_0'
p5181
I5198
sS'{iEotirAD_1'
p5182
I5199
sS'jumohuwriy~_1'
p5183
I5200
sS'OdY_0'
p5184
I5201
sS'sabot_1'
p5185
I5202
sS'luEobap_1'
p5186
I5203
sS'musAEid_1'
p5187
I5204
sS'daras-u_1'
p5188
I544
sS'mWqtp_0'
p5189
I5206
sS'Ean~af_1'
p5190
I5207
sS'zmlAQhm_0'
p5191
I5208
sS'tasal~am_1'
p5192
I5209
sS'jiniyf_1'
p5193
I5210
sS'OstrAly_0'
p5194
I5212
sS'sytOxr_0'
p5195
I5213
sS'xitAn_1'
p5196
I5214
sS'kar~ar_1'
p5197
I618
sS'talAEub_1'
p5198
I5216
sS'suwiysrA_1'
p5199
I5217
sS'Vkrh_0'
p5200
I5218
sS'TamuwH_1'
p5201
I5179
sS'tOjyl_0'
p5202
I5220
sS'Owlhm_0'
p5203
I5221
sS'clH_0'
p5204
I5222
sS'IDAfp_0'
p5205
I5223
sS'AlcAwy_0'
p5206
I5224
sS'matojar_1'
p5207
I5225
sS'Omwr_0'
p5208
I5226
sS'Taraf_1'
p5209
I5227
sS'AlmwbwCp_0'
p5210
I6740
sS'AlOsAbyE_0'
p5211
I5228
sS'mstcArp_0'
p5212
I5229
sS'AlOnhAr_0'
p5213
I5230
sS'ntVkr_0'
p5214
I5231
sS'HiSAr_1'
p5215
I5232
sS'wOTlb_0'
p5216
I5233
sS'IslAmyA_0'
p5217
I5234
sS'llIntAj_0'
p5218
I5235
sS'niyAbap_1'
p5219
I5236
sS'>aworad_1'
p5220
I6016
sS'yrQsh_0'
p5221
I5239
sS'wAlOss_0'
p5222
I5240
sS'zAyid_1'
p5223
I5241
sS'OSwAtA_0'
p5224
I5242
sS'AlAntcAr_0'
p5225
I5243
sS'juwrojiyA_1'
p5226
I5244
sS'mutaxal~if_1'
p5227
I5245
sS'338_0'
p5228
I5246
sS'wOrdnyp_0'
p5229
I5247
sS'Euqodap_1'
p5230
I5248
sS'banod_1'
p5231
I5249
sS'fas~ar_1'
p5232
I5250
sS'wOwrwbyp_0'
p5233
I5251
sS':_0'
p5234
I5252
sS'tarobiyap_1'
p5235
I5253
sS'wnwAfVh_0'
p5236
I5254
sS'{ixotibAr_1'
p5237
I5255
sS'yamiyniy~_1'
p5238
I5256
sS'bAniy_1'
p5239
I5257
sS'IEmAr_0'
p5240
I5258
sS'muHozin_1'
p5241
I5259
sS'>aHoyaY_1'
p5242
I5260
sS'InjAzhA_0'
p5243
I5261
sS'jamiyl_1'
p5244
I5262
sS'yaman_1'
p5245
I5263
sS'yaman_2'
p5246
I5264
sS'mArotin_1'
p5247
I336
sS'IxbArA_0'
p5248
I5265
sS'AlIsrAQylywn_0'
p5249
I5266
sS'liy_1'
p5250
I5267
sS'EiToriy~_1'
p5251
I5268
sS'OwrwbA_0'
p5252
I5269
sS'mctrkA_0'
p5253
I5270
sS'danas_1'
p5254
I5271
sS'wAlmncMt_0'
p5255
I5272
sS'nasiy-a_1'
p5256
I5273
sS'TahorAn_1'
p5257
I5274
sS'cWwn_0'
p5258
I5275
sS'musotawoTanap_1'
p5259
I5276
sS'habaT-ui_1'
p5260
I2084
sS'OfrAd_0'
p5261
I5278
sS'AmrOp_0'
p5262
I5279
sS'IrmAn_0'
p5263
I5280
sS'mujomal_1'
p5264
I5281
sS'tarok_1'
p5265
I5282
sS'mAnodiylA_1'
p5266
I5283
sS'taEad~iy_1'
p5267
I5284
sS'{ifotirAq_1'
p5268
I5285
sS'nVkr_0'
p5269
I5286
sS'{ilotizAm_1'
p5270
I5287
sS'trcyc_0'
p5271
I5288
sS'mAyuw_1'
p5272
I5289
sS'AlOqlyAt_0'
p5273
I5290
sS'lnAQb_0'
p5274
I5291
sS'Altchyr_0'
p5275
I5292
sS'EilAj_1'
p5276
I5293
sS'ncrt_0'
p5277
I5294
sS'mafotuwH_1'
p5278
I5295
sS'kiym_1'
p5279
I5296
sS'wAlcwyr_0'
p5280
I5297
sS'wIvArp_0'
p5281
I5298
sS'bAlkymyAC_0'
p5282
I5299
sS'taxaw~uf_1'
p5283
I5300
sS'llmWssp_0'
p5284
I5301
sS'tawofiyq_1'
p5285
I5302
sS'saboE_1'
p5286
I5303
sS'saboE_2'
p5287
I5304
sS'bAsk_1'
p5288
I5305
sS'Mxryn_0'
p5289
I5306
sS'kiyniyt_1'
p5290
I5307
sS'AlMdAb_0'
p5291
I3446
sS'{inoqasam_1'
p5292
I5309
sS'tafosiyr_1'
p5293
I5310
sS'AlOmyr_0'
p5294
I3082
sS'nad~ad_1'
p5295
I5312
sS'waliy-i_1'
p5296
I3448
sS'220_0'
p5297
I5313
sS'sufoliy~_1'
p5298
I5314
sS'fclt_0'
p5299
I5315
sS'madaY_1'
p5300
I5316
sS'TagaY-a_1'
p5301
I5317
sS'Taw~al_1'
p5302
I5318
sS'barofiyz_1'
p5303
I5319
sS'Hal~-i_1'
p5304
I7307
sS'miriy~_1'
p5305
I5320
sS'AlnhAQy_0'
p5306
I5321
sS'siytiy_1'
p5307
I5322
sS'IEAdp_0'
p5308
I6964
sS'OrSdp_0'
p5309
I3708
sS'krimoliyn_1'
p5310
I5325
sS'bOnhA_0'
p5311
I5326
sS'wInkltrA_0'
p5312
I5327
sS'muqAwim_1'
p5313
I5328
sS'TAqap_1'
p5314
I5329
sS'tajoribap_1'
p5315
I5330
sS'OmtAr_0'
p5316
I1283
sS'OwlhA_0'
p5317
I5332
sS'AltlAmyV_0'
p5318
I5333
sS'OVkr_0'
p5319
I5334
sS'mAr~_1'
p5320
I5335
sS'ramAd_1'
p5321
I5336
sS'noun_num'
p5322
I56
sS'taEAqad_1'
p5323
I5337
sS'qAwam_1'
p5324
I5338
sS'maToruwH_1'
p5325
I5340
sS'tagay~ar_1'
p5326
I5341
sS'bayonamA_1'
p5327
I5342
sS'bAriysiy~_1'
p5328
I5343
sS'wyxtbQwn_0'
p5329
I5344
sS'AlOlf_0'
p5330
I5345
sS'AlIyrAnyyn_0'
p5331
I5346
sS'IEfACh_0'
p5332
I5347
sS'tckyk_0'
p5333
I5348
sS'diynAr_1'
p5334
I5349
sS'muwATin_1'
p5335
I5350
sS'EalaY_1'
p5336
I5351
sS'turkiyA_1'
p5337
I5352
sS'ActgAl_0'
p5338
I4299
sS'mutawaq~aE_1'
p5339
I5354
sS'hWlAC_0'
p5340
I5355
sS'wrOY_0'
p5341
I5356
sS'OrADyhm_0'
p5342
I5357
sS'wchdt_0'
p5343
I7317
sS'IslAmywn_0'
p5344
I5359
sS'xariyf_1'
p5345
I5360
sS'ZAlim_1'
p5346
I5361
sS'ka_1'
p5347
I5362
sS'cmAlA_0'
p5348
I5363
sS'AlxsAQr_0'
p5349
I5364
sS'tabaq~aY_1'
p5350
I5365
sS'ObTAlA_0'
p5351
I5366
sS'fiykotuwr_1'
p5352
I5367
sS'VAhbp_0'
p5353
I5368
sS'ruwbirot_1'
p5354
I1549
sS'wAlmWssAt_0'
p5355
I5370
sS'jinosiy~ap_1'
p5356
I5371
sS'AlmcAEr_0'
p5357
I1556
sS'strAsobuwrg_1'
p5358
I5373
sS'Tawor_1'
p5359
I5374
sS'EAr_1'
p5360
I2456
sS'650_0'
p5361
I5376
sS'116_0'
p5362
I5377
sS'samarayon_1'
p5363
I5378
sS'taSAEad_1'
p5364
I5379
sS'wAlVy_0'
p5365
I5380
sS'Hayawiy~_1'
p5366
I7319
sS'AlmWydp_0'
p5367
I5324
sS'xaT~_1'
p5368
I5382
sS'xaT~_2'
p5369
I5383
sS'Earuws_1'
p5370
I5384
sS'jabor_1'
p5371
I1606
sS'Ott_0'
p5372
I5386
sS'AlIstrAtyjy_0'
p5373
I5387
sS'25_0'
p5374
I5388
sS'Osrp_0'
p5375
I5389
sS'lbwc_0'
p5376
I5390
sS'maxoraj_1'
p5377
I5391
sS'hilosinkiy_1'
p5378
I5392
sS'AlmbAcr_0'
p5379
I5393
sS'muHotawaY_1'
p5380
I5394
sS'muqAtil_1'
p5381
I5395
sS'laEal~a_1'
p5382
I5396
sS'saEuwdiy~_1'
p5383
I1695
sS'wOmAmh_0'
p5384
I7461
sS'>aDAE_1'
p5385
I5399
sS'sAw_1'
p5386
I5400
sS'wAlkhrbAC_0'
p5387
I5401
sS'bAlfAQdp_0'
p5388
I5402
sS'qaToE_1'
p5389
I6040
sS'suwhAj_1'
p5390
I5404
sS'AlOEDAC_0'
p5391
I5405
sS'IqnAE_0'
p5392
I5406
sS'tArak_1'
p5393
I5407
sS'ZAhir_2'
p5394
I5408
sS'muqotaDab_1'
p5395
I5409
sS'mawolaY_2'
p5396
I5410
sS'mVylp_0'
p5397
I5411
sS'bOhdAfh_0'
p5398
I5412
sS'AltOxyr_0'
p5399
I5413
sS'bruwkosil_1'
p5400
I5414
sS'bOslHp_0'
p5401
I5415
sS'DagaT_1'
p5402
I7328
sS'Oqym_0'
p5403
I5417
sS'VAkrtnA_0'
p5404
I5418
sS'siyAHiy~_1'
p5405
I5419
sS'{inotixAbiy~_1'
p5406
I5420
sS'wAlOrbEAC_0'
p5407
I5421
sS'xasir-a_1'
p5408
I5422
sS'ziyArap_1'
p5409
I5423
sS'EAj_1'
p5410
I5424
sS'muEAhadap_1'
p5411
I5425
sS'tbrQp_0'
p5412
I1853
sS'OnwAEh_0'
p5413
I5427
sS'jamoEiy~ap_1'
p5414
I5428
sS'qabil-a_1'
p5415
I5429
sS'nahoriy~_1'
p5416
I5430
sS'nafoTiy~_1'
p5417
I5431
sS'hiyruwiyn_1'
p5418
I5432
sS'MVAr_0'
p5419
I5433
sS'gArap_1'
p5420
I5434
sS'rOt_0'
p5421
I5435
sS'OsqT_0'
p5422
I5436
sS'AtxVt_0'
p5423
I5437
sS'jirAHiy~_1'
p5424
I5438
sS'EcrAt_0'
p5425
I6047
sS'AlAstgnAC_0'
p5426
I4405
sS'vAniy_2'
p5427
I5440
sS'vAniy_1'
p5428
I5441
sS'tafojiyr_1'
p5429
I5442
sS'AlISAbAt_0'
p5430
I5443
sS'Sad~_1'
p5431
I5444
sS'qad~ar_1'
p5432
I5445
sS'barolamAniy~_1'
p5433
I5446
sS'daworiy~_2'
p5434
I5447
sS'daworiy~_1'
p5435
I5448
sS'hawaY_1'
p5436
I5449
sS'AlObyD_0'
p5437
I5450
sS'Ealan_1'
p5438
I5451
sS'muqotaraH_1'
p5439
I5453
sS'hArodAwAy_1'
p5440
I5454
sS'baSariy~_1'
p5441
I5455
sS'taTar~uq_1'
p5442
I5456
sS'800_0'
p5443
I5457
sS'takorAr_1'
p5444
I5458
sS'wtOhyl_0'
p5445
I5459
sS'qiTAE_1'
p5446
I2028
sS'faDal-u_1'
p5447
I5461
sS'kAliyfuwroniyA_1'
p5448
I5462
sS'tijArap_1'
p5449
I2055
sS'fariyq_1'
p5450
I5464
sS'{iT~alaE_1'
p5451
I5465
sS'qAl-u_1'
p5452
I7336
sS'llOrADy_0'
p5453
I2097
sS'kuwbinohAgin_1'
p5454
I5468
sS'Ojhzp_0'
p5455
I5469
sS'kAd-a_1'
p5456
I5470
sS'IrsAC_0'
p5457
I5471
sS'DAEaf_1'
p5458
I5472
sS'2_0'
p5459
I5473
sS'Eajiyn_1'
p5460
I5474
sS'kasal_1'
p5461
I5475
sS'AlOsd_0'
p5462
I5476
sS'Eaniyf_1'
p5463
I5477
sS'makosiyk_1'
p5464
I5478
sS'bOlm_0'
p5465
I5479
sS'tasojiyl_1'
p5466
I5480
sS'bynwcyh_0'
p5467
I5481
sS'lqAC_0'
p5468
I5482
sS'Iyst_0'
p5469
I5483
sS'23_0'
p5470
I7338
sS'AlOzmAt_0'
p5471
I5485
sS'AlIdAnp_0'
p5472
I5486
sS'tilofAz_1'
p5473
I5487
sS'TaraH-a_1'
p5474
I5488
sS'AlIElAmyyn_0'
p5475
I5489
sS'yfAjO_0'
p5476
I5490
sS'takav~af_1'
p5477
I5491
sS'juwkiy_1'
p5478
I5492
sS'bAlOms_0'
p5479
I5493
sS'nuwfimobir_1'
p5480
I5494
sS'mak~ap_1'
p5481
I5495
sS'sawiy~_1'
p5482
I5496
sS'AlOfgAn_0'
p5483
I5497
sS'qAQlA_0'
p5484
I5498
sS'OEAdwny_0'
p5485
I5499
sS'AlAEtVAr_0'
p5486
I5500
sS'faraD_1'
p5487
I5501
sS'10_0'
p5488
I5502
sS'1979_0'
p5489
I5503
sS'mutamar~id_2'
p5490
I5504
sS'mutamar~id_1'
p5491
I5505
sS'kliynotuwn_1'
p5492
I5506
sS'mutawaq~if_1'
p5493
I5507
sS'EimolAq_1'
p5494
I5508
sS'EimolAq_2'
p5495
I5509
sS'wsycArk_0'
p5496
I5510
sS'biyuwluwjiy~_1'
p5497
I5511
sS'marojuw~_1'
p5498
I5512
sS'wAsiTap_1'
p5499
I5513
sS'thyQthm_0'
p5500
I6060
sS'AlISlAH_0'
p5501
I5515
sS'taxaS~uSiy~_1'
p5502
I5516
sS'OjdhA_0'
p5503
I5517
sS'bODxm_0'
p5504
I5518
sS'SayodA_1'
p5505
I5519
sS'.78_0'
p5506
I5520
sS'Owqft_0'
p5507
I5521
sS'ytxV_0'
p5508
I5522
sS'Dajiyj_1'
p5509
I5523
sS'nAsodAk_1'
p5510
I5524
sS'salomAn_1'
p5511
I5525
sS'kayofiy~ap_1'
p5512
I5526
sS'syOxV_0'
p5513
I2430
sS'wAlVyn_0'
p5514
I5528
sS'OjwAC_0'
p5515
I5529
sS'>asowad_1'
p5516
I5530
sS'bAlIbAdp_0'
p5517
I5531
sS'{inotiSAr_1'
p5518
I2452
sS'bOkbr_0'
p5519
I5533
sS'OrbE_0'
p5520
I5534
sS'cms_0'
p5521
I5535
sS'{isotixobAr_1'
p5522
I5536
sS'AlOHdAv_0'
p5523
I2472
sS'IDAfyyn_0'
p5524
I5538
sS'EaSiy~_1'
p5525
I5539
sS'turAb_1'
p5526
I5540
sS'miyniysuwtA_1'
p5527
I5541
sS'taEay~an_1'
p5528
I5542
sS'DaEiyf_1'
p5529
I5543
sS'muEAnAp_1'
p5530
I5545
sS'Alchwd_0'
p5531
I5546
sS'EAjil_1'
p5532
I5547
sS'mncMt_0'
p5533
I2530
sS'dirAyap_1'
p5534
I5549
sS'wasiylap_1'
p5535
I3611
sS'muhad~ad_1'
p5536
I5553
sS'nAfir_1'
p5537
I5554
sS'Euquwbap_1'
p5538
I5555
sS'wOsfr_0'
p5539
I5556
sS'maEAF_1'
p5540
I5557
sS'{ixotaSar_1'
p5541
I5558
sS'AstyAC_0'
p5542
I5559
sS'hAjis_1'
p5543
I5560
sS'jariymap_1'
p5544
I5561
sS'tajaw~ul_1'
p5545
I2584
sS'vakolAn_1'
p5546
I5563
sS'malAmiH_1'
p5547
I5564
sS'wtOjl_0'
p5548
I5565
sS'rAtib_1'
p5549
I2128
sS'bOHr_0'
p5550
I5567
sS'Idh_0'
p5551
I5568
sS'8_0'
p5552
I5569
sS'TarAwinap_1'
p5553
I5570
sS'qalam_1'
p5554
I5571
sS'fatorap_1'
p5555
I5572
sS'AlcjAEp_0'
p5556
I5573
sS'zAwiyap_1'
p5557
I5574
sS'2000_0'
p5558
I2703
sS'wAlmsWwl_0'
p5559
I5576
sS'wbmcrwE_0'
p5560
I5577
sS'yawomiy~_1'
p5561
I933
sS'taqArab_1'
p5562
I5579
sS'wOsrh_0'
p5563
I5580
sS'Eabor_1'
p5564
I5581
sS'AlOxwyp_0'
p5565
I5582
sS'waqaf-i_1'
p5566
I5583
sS'Intrnt_0'
p5567
I5584
sS'qunuwt_1'
p5568
I5585
sS'Eawon_2'
p5569
I5586
sS'cnqA_0'
p5570
I5587
sS'crHh_0'
p5571
I6073
sS'lOyAm_0'
p5572
I5589
sS'Omyn_0'
p5573
I5591
sS'xarAb_1'
p5574
I5592
sS'riybuwrotAj_1'
p5575
I5593
sS'AlInsAny_0'
p5576
I5594
sS'qAsiy_1'
p5577
I5595
sS'fan~An_1'
p5578
I5596
sS'siy_1'
p5579
I5597
sS'OxrY_0'
p5580
I5598
sS'llnAQb_0'
p5581
I5599
sS'fAxir_2'
p5582
I5600
sS'nuwr_2'
p5583
I5601
sS'nuwr_1'
p5584
I5602
sS'naSor_2'
p5585
I5603
sS'naSor_1'
p5586
I5604
sS'AlTArQ_0'
p5587
I5605
sS'wOErb_0'
p5588
I5606
sS'Huluwl_1'
p5589
I5607
sS'xaliyl_1'
p5590
I2844
sS'fiyniyks_1'
p5591
I2859
sS'taEomiyq_1'
p5592
I5610
sS'sal~ap_1'
p5593
I5611
sS'OyDA_0'
p5594
I5612
sS'barAziyliy~_1'
p5595
I5613
sS'salotA_1'
p5596
I5614
sS'nazoE_1'
p5597
I5615
sS'1984_0'
p5598
I5616
sS'bAlIsrAE_0'
p5599
I5617
sS'jisom_1'
p5600
I5618
sS'cAHntyn_0'
p5601
I5619
sS'muHam~adiy~_1'
p5602
I5620
sS'jal~_1'
p5603
I5621
sS'hazam-i_1'
p5604
I7355
sS'Tabax-ua_1'
p5605
I2960
sS'nAbil_1'
p5606
I2970
sS'Hikomat_1'
p5607
I5625
sS'jACnA_0'
p5608
I5626
sS'Iyr_0'
p5609
I5627
sS'hadaf_1'
p5610
I5628
sS'mujorim_1'
p5611
I6078
sS'mWss_0'
p5612
I5630
sS'Habas-i_1'
p5613
I5631
sS'kuwluwmobiyA_1'
p5614
I5632
sS'kwtcAryAn_0'
p5615
I5633
sS'Al_1'
p5616
I5634
sS'HiromAn_1'
p5617
I5636
sS'AlOvnAC_0'
p5618
I5637
sS'mlQ_0'
p5619
I4693
sS'wOyd_0'
p5620
I5639
sS'tazowiyr_1'
p5621
I5640
sS'rahiynap_1'
p5622
I5641
sS'juwziyh_1'
p5623
I5643
sS'wbAC_0'
p5624
I5644
sS'Alncr_0'
p5625
I5645
sS'cnthmA_0'
p5626
I5646
sS'fasAd_1'
p5627
I5647
sS'min_1'
p5628
I5648
sS'AllwAC_0'
p5629
I5649
sS'madoriyd_1'
p5630
I5650
sS'{iHotilAl_1'
p5631
I5651
sS'wVlk_0'
p5632
I3134
sS'miDorab_1'
p5633
I5653
sS'crq_0'
p5634
I5654
sS'IqAmthm_0'
p5635
I5655
sS'muwnotriyAl_1'
p5636
I5656
sS'samiyH_2'
p5637
I5657
sS'4_9_0'
p5638
I1591
sS'nuSob_1'
p5639
I5658
sS'adv'
p5640
I466
sS'wuq~ap_1'
p5641
I3179
sS'AlIklyrykyp_0'
p5642
I7360
sS'wllfAQz_0'
p5643
I2236
sS'dAmiy_1'
p5644
I5661
sS'ruwjiyih_1'
p5645
I5662
sS'adj'
p5646
I27
sS'OqbAT_0'
p5647
I5663
sS'bAlckr_0'
p5648
I5664
sS'wctwtgArt_0'
p5649
I6085
sS'sin~_1'
p5650
I6984
sS'marokabap_1'
p5651
I5666
sS'wAlMxr_0'
p5652
I5667
sS'AlcEAr_0'
p5653
I5668
sS'Eawolamap_1'
p5654
I5669
sS'hamal_1'
p5655
I5670
sS'muhAjamap_1'
p5656
I5671
sS'maworid_1'
p5657
I5672
sS'AlcWwn_0'
p5658
I3274
sS'OmwAl_0'
p5659
I5674
sS'1987_0'
p5660
I6670
sS'taEAlaY_1'
p5661
I5675
sS'jirojis_1'
p5662
I7366
sS'nAjiH_1'
p5663
I5677
sS'wrcp_0'
p5664
I5678
sS'lIcrAkh_0'
p5665
I5679
sS'wAlcEb_0'
p5666
I5680
sS'{ibonap_1'
p5667
I3315
sS'diytruwyt_1'
p5668
I5682
sS'Omn_0'
p5669
I5683
sS'ncrAthA_0'
p5670
I5684
sS'AlvlvAC_0'
p5671
I7181
sS'qalaq_1'
p5672
I3341
sS'rahobAniy~ap_1'
p5673
I5686
sS'saHob_1'
p5674
I5688
sS'144_0'
p5675
I5689
sS'OfrAdA_0'
p5676
I5690
sS'AlOshm_0'
p5677
I5691
sS'Owlwyth_0'
p5678
I5692
sS'nazof_1'
p5679
I5693
sS'>aEolaY_2'
p5680
I5694
sS'fASil_1'
p5681
I5695
sS'bEcrp_0'
p5682
I5696
sS'EchA_0'
p5683
I5697
sS'suwdAn_1'
p5684
I3416
sS'bcdp_0'
p5685
I5699
sS'cArf_0'
p5686
I5700
sS'mamolakap_1'
p5687
I5701
sS'muHAfiZ_1'
p5688
I5702
sS'{irotabaT_1'
p5689
I5703
sS'tcgl_0'
p5690
I5704
sS'AlrQysyn_0'
p5691
I5705
sS'ynqV_0'
p5692
I5706
sS'bawn_1'
p5693
I5707
sS'law~aH_1'
p5694
I5708
sS'raboT_1'
p5695
I5709
sS'taqoliydiy~_1'
p5696
I5710
sS'AlqrACp_0'
p5697
I5711
sS'bIxDAE_0'
p5698
I5712
sS'mctElp_0'
p5699
I5713
sS'Samot_1'
p5700
I5714
sS'AlcmAlyp_0'
p5701
I5715
sS'wtcAwrt_0'
p5702
I3495
sS'16.5_0'
p5703
I5717
sS'bcOn_0'
p5704
I5718
sS'{isotiTAEap_1'
p5705
I3505
sS'EuDow_1'
p5706
I5720
sS'lOmyrkA_0'
p5707
I3513
sS'baTon_1'
p5708
I5722
sS'IntrnAsywnAly_0'
p5709
I3524
sS'mWydp_0'
p5710
I5724
sS'muforaj_1'
p5711
I5725
sS'hadaf-i_1'
p5712
I3547
sS'OmlAk_0'
p5713
I5727
sS'mufAwaDap_1'
p5714
I5728
sS'{iqotinAE_1'
p5715
I5729
sS'Oymy_0'
p5716
I5730
sS'OvrhA_0'
p5717
I5731
sS'200_0'
p5718
I5732
sS'wAlmWrxyn_0'
p5719
I5733
sS'mikonAsiy~_2'
p5720
I5734
sS'qahoqar_1'
p5721
I1302
sS'>aSobaH_1'
p5722
I5736
sS'baniy_1'
p5723
I5737
sS'tnqV_0'
p5724
I5738
sS'llOwnyskw_0'
p5725
I5739
sS'AlEAQlp_0'
p5726
I3648
sS'sycArkAn_0'
p5727
I4256
sS'btOhyl_0'
p5728
I5741
sS'baEoda_1'
p5729
I5742
sS'ramaY-i_1'
p5730
I5743
sS'jAl-u_1'
p5731
I5744
sS'{inosijAm_1'
p5732
I5745
sS'cEbh_0'
p5733
I5746
sS'AlOnbAC_0'
p5734
I5747
sS'1949_0'
p5735
I5748
sS'qan~AS_1'
p5736
I5749
sS'EASif_1'
p5737
I3682
sS'fiyrojiyniyA_1'
p5738
I5751
sS'{isotajAb_1'
p5739
I5752
sS'wOml_0'
p5740
I5753
sS'OSybwA_0'
p5741
I5754
sS'mufAwiD_1'
p5742
I3712
sS'lVlk_0'
p5743
I5756
sS'llfAQz_0'
p5744
I5757
sS'yuwtA_1'
p5745
I5758
sS'Had~-u_1'
p5746
I5759
sS'SAQb_0'
p5747
I5760
sS'bbnAC_0'
p5748
I5761
sS'OrjQt_0'
p5749
I5762
sS'>aham~_2'
p5750
I5763
sS'>aham~_1'
p5751
I5764
sS'kAdir_1'
p5752
I5765
sS'manohaj_1'
p5753
I5766
sS'bOyAm_0'
p5754
I3787
sS'wAlEAcr_0'
p5755
I5768
sS'55_0'
p5756
I5769
sS'gaziyr_1'
p5757
I5770
sS'qDAC_0'
p5758
I5771
sS'>aSar~_1'
p5759
I5772
sS'wAlgnAC_0'
p5760
I5773
sS'hdwQhA_0'
p5761
I5774
sS'AlOTrAf_0'
p5762
I5775
sS'Hariyriy~_1'
p5763
I5776
sS'ncATAthA_0'
p5764
I5777
sS'{ibotizAz_1'
p5765
I5778
sS'tanosiyq_1'
p5766
I3833
sS'kasAd_1'
p5767
I5780
sS'07_0'
p5768
I5781
sS'whyQAt_0'
p5769
I5782
sS'0_0'
p5770
I5783
sS'cErt_0'
p5771
I3891
sS'ryAcy_0'
p5772
I5785
sS'llmWAzrp_0'
p5773
I5786
sS'tamoziyq_1'
p5774
I5787
sS'{iHotaram_1'
p5775
I3914
sS'mulAzim_1'
p5776
I5789
sS'OjdAdh_0'
p5777
I3925
sS'wycAr_0'
p5778
I5791
sS'waviyq_1'
p5779
I5792
sS'jid~iy~ap_1'
p5780
I5793
sS'mirowaHiy~ap_1'
p5781
I3938
sS'{inohiyAr_1'
p5782
I5795
sS'>asoham_1'
p5783
I5796
sS'nwqct_0'
p5784
I5797
sS'OEdth_0'
p5785
I5798
sS'dAkAr_1'
p5786
I5799
sS'mutawaq~iE_1'
p5787
I7387
sS'Saqor_1'
p5788
I5801
sS'Saqor_2'
p5789
I3975
sS'Owqfthm_0'
p5790
I5803
sS'AlIskwtlndyp_0'
p5791
I5804
sS'wasax_1'
p5792
I924
sS'mncOp_0'
p5793
I6104
sS'faworiy~_1'
p5794
I5806
sS'mad~_1'
p5795
I5807
sS'AlOslHp_0'
p5796
I5808
sS'AlOml_0'
p5797
I5809
sS'qurob_1'
p5798
I5810
sS'{iEotimAd_1'
p5799
I5811
sS'EcAC_0'
p5800
I5812
sS'lObrz_0'
p5801
I5813
sS'muEotAd_1'
p5802
I5814
sS'wsQl_0'
p5803
I5815
sS'Sal~aY_1'
p5804
I5816
sS'musotaxodam_1'
p5805
I4060
sS'EunoSuriy~_2'
p5806
I5818
sS'Eazof_1'
p5807
I5819
sS'xAf-a_1'
p5808
I5820
sS'wIbrhym_0'
p5809
I7388
sS'raSod_1'
p5810
I5822
sS'gazal_2'
p5811
I5823
sS'xaliyfap_1'
p5812
I5824
sS'78.20_0'
p5813
I5825
sS'bwckAc_0'
p5814
I5826
sS'OdnY_0'
p5815
I5827
sS'laTiyf_1'
p5816
I5828
sS'EAdal_1'
p5817
I5829
sS'juw_1'
p5818
I5830
sS'IsrAQyly_0'
p5819
I5831
sS'wnAqc_0'
p5820
I5832
sS'OwSAl_0'
p5821
I5833
sS'taraw~iy_1'
p5822
I5834
sS'wAviq_1'
p5823
I5835
sS'hiyt_1'
p5824
I4251
sS'{it~ifAqiy~ap_1'
p5825
I5837
sS'AlImsAk_0'
p5826
I5838
sS')_0'
p5827
I5839
sS'niZAm_1'
p5828
I5840
sS'salak-u_1'
p5829
I5841
sS'madaniy~_1'
p5830
I6112
sS'wIdmwn_0'
p5831
I5844
sS'wOxcY_0'
p5832
I5845
sS'qATaE_1'
p5833
I5846
sS'Humap_1'
p5834
I5847
sS'rAm_1'
p5835
I4319
sS'AlcHn_0'
p5836
I5849
sS'Onjz_0'
p5837
I5850
sS'llOzmp_0'
p5838
I5851
sS'lInqAV_0'
p5839
I5852
sS'IHsAn_0'
p5840
I5854
sS'jAlA_1'
p5841
I5855
sS'OcrTp_0'
p5842
I5856
sS'muEAlajap_1'
p5843
I5857
sS'AlIqAlp_0'
p5844
I5858
sS'Ivr_0'
p5845
I5859
sS'Aljyc_0'
p5846
I5860
sS'baroliyn_1'
p5847
I4397
sS'TwAQfhn_0'
p5848
I4401
sS'6_0'
p5849
I5863
sS'fVlk_0'
p5850
I5864
sS'MfAq_0'
p5851
I5590
sS'1996_0'
p5852
I5866
sS'IVAEp_0'
p5853
I5537
sS'mabiyE_1'
p5854
I5867
sS'kaEob_1'
p5855
I5868
sS'Hamal-i_1'
p5856
I5869
sS'OwDH_0'
p5857
I4446
sS'bAz_1'
p5858
I3612
sS'nahor_1'
p5859
I5872
sS'OdryAn_0'
p5860
I7400
sS'fiD~ap_1'
p5861
I5874
sS'tasAmuH_1'
p5862
I5875
sS'hajomap_1'
p5863
I5876
sS'wAqiEiy~ap_1'
p5864
I5877
sS'wAqiEiy~_1'
p5865
I5878
sS'IsbAnyA_0'
p5866
I5879
sS'AlOsbwEyp_0'
p5867
I5880
sS'haz~-u_1'
p5868
I5881
sS'faHom_2'
p5869
I4502
sS'Oqdm_0'
p5870
I5883
sS'wAlIslAmy_0'
p5871
I5884
sS'1.6305_0'
p5872
I5885
sS'qunoduz_1'
p5873
I5886
sS'{isotiDAfap_1'
p5874
I5887
sS'AlISlAHyp_0'
p5875
I5888
sS'yWkdwn_0'
p5876
I5889
sS'muwrAtiynuws_1'
p5877
I4563
sS'wOmnyA_0'
p5878
I5892
sS'1951_0'
p5879
I4574
sS'AlAftrAC_0'
p5880
I5894
sS'dab~Abap_1'
p5881
I5895
sS'AlfQAt_0'
p5882
I5896
sS'AlOxyryn_0'
p5883
I5897
sS'600_0'
p5884
I5898
sS'Alcbkcy_0'
p5885
I5899
sS'OrslnA_0'
p5886
I5900
sS'xayor_1'
p5887
I5901
sS'kayodiy~_1'
p5888
I5902
sS'>anojaz_1'
p5889
I5903
sS'wMxr_0'
p5890
I5904
sS'ElmAC_0'
p5891
I5905
sS'wAlOmm_0'
p5892
I5906
sS'mudar~is_1'
p5893
I5907
sS'MxVp_0'
p5894
I5908
sS'{iHotaraq_1'
p5895
I5909
sS'kavorap_1'
p5896
I5910
sS'wuwkir_1'
p5897
I5911
sS'Eaduw~_1'
p5898
I4659
sS'tHVr_0'
p5899
I5913
sS'OEyd_0'
p5900
I4664
sS'{inotiqAliy~_1'
p5901
I413
sS'mutakar~ir_1'
p5902
I5916
sS'musotaqobaliy~_1'
p5903
I5917
sS'gAl_2'
p5904
I5918
sS'AlOnSAr_0'
p5905
I5919
sS'bunoduq_1'
p5906
I4741
sS'sud~ap_1'
p5907
I5921
sS'tarokiyb_1'
p5908
I4724
sS'mADiy_1'
p5909
I3492
sS'OngwlA_0'
p5910
I5924
sS'muEAwadap_1'
p5911
I5925
sS'baEolabak~iy~_2'
p5912
I5926
sS'{inoDam~_1'
p5913
I5927
sS'nfVthA_0'
p5914
I5928
sS'wInqAV_0'
p5915
I5929
sS'OjzAC_0'
p5916
I4754
sS'VAt_0'
p5917
I5931
sS'mufAEil_1'
p5918
I4768
sS'rakol_1'
p5919
I4775
sS'97_0'
p5920
I5934
sS'dunoyA_1'
p5921
I5935
sS'mabonaY_1'
p5922
I5936
sS'SAmid_1'
p5923
I5937
sS'{inotiHAr_1'
p5924
I4799
sS'tuhomap_1'
p5925
I5939
sS'Actdt_0'
p5926
I5940
sS'cbkp_0'
p5927
I6130
sS'>ataY-i_1'
p5928
I5942
sS'{iHotiyATiy~_2'
p5929
I5943
sS'kAVbp_0'
p5930
I5944
sS'diykuwr_1'
p5931
I5945
sS'taTaw~ur_1'
p5932
I5946
sS'wOlmAnyA_0'
p5933
I5947
sS'AlOrbEAC_0'
p5934
I5948
sS'gazAl_2'
p5935
I5949
sS'klm_1'
p5936
I4866
sS'kOxA_0'
p5937
I5951
sS'OhlnA_0'
p5938
I5952
sS'HynVAk_0'
p5939
I5953
sS'{isotadoraj_1'
p5940
I5954
sS'fAtin_2'
p5941
I5955
sS'wktAQb_0'
p5942
I5956
sS'rAmiy_1'
p5943
I5957
sS'namir_1'
p5944
I5958
sS'rAmiy_3'
p5945
I5959
sS'OjAb_0'
p5946
I4913
sS'Hizob_2'
p5947
I5961
sS'Omkn_0'
p5948
I5962
sS'musAlamap_1'
p5949
I4932
sS'tay~Ar_1'
p5950
I5964
sS'janaY-i_1'
p5951
I5965
sS'tcryn_0'
p5952
I4945
sS'lmAVA_0'
p5953
I6472
sS'{it~iHAd_2'
p5954
I5968
sS'tarAkum_1'
p5955
I5969
sS'OwkynAwA_0'
p5956
I4957
sS'wAlIVAEp_0'
p5957
I2263
sS'muqar~ab_1'
p5958
I7122
sS'mAhiy~ap_1'
p5959
I5972
sS'kanoEAn_1'
p5960
I5973
sS'Talaqap_1'
p5961
I5974
sS'zaxar-a_1'
p5962
I5975
sS'HASar_1'
p5963
I5976
sS'bcbkp_0'
p5964
I5977
sS'IHSAQy_0'
p5965
I5016
sS'OHrzh_0'
p5966
I5979
sS'HiyAla_1'
p5967
I5980
sS'HaDArap_1'
p5968
I5981
sS'tasam~uE_1'
p5969
I5982
sS'wcxSyAt_0'
p5970
I5983
sS'tawoHiyd_1'
p5971
I5984
sS'AlvlAvAC_0'
p5972
I5985
sS'Tariyq_1'
p5973
I5986
sS'tarobawiy~_1'
p5974
I5987
sS'AlODwAC_0'
p5975
I5988
sS'AljzAQryp_0'
p5976
I5989
sS'rAwiy_1'
p5977
I5990
sS'wmstcArth_0'
p5978
I5991
sS'faEal-a_1'
p5979
I5992
sS'AlqAQm_0'
p5980
I5993
sS'rMh_0'
p5981
I5994
sS'OErbwA_0'
p5982
I5995
sS'AlOcwAT_0'
p5983
I5996
sS'timovAl_1'
p5984
I5997
sS'xuwroxiy_1'
p5985
I2232
sS'baqiy~ap_1'
p5986
I5999
sS'AlrhAQn_0'
p5987
I6000
sS'masojuwn_1'
p5988
I6001
sS'zaman_1'
p5989
I6002
sS'musAhamap_1'
p5990
I6003
sS'tam~uwz_1'
p5991
I5142
sS'fjOp_0'
p5992
I6005
sS'risAlap_1'
p5993
I6006
sS'sjnAC_0'
p5994
I5185
sS'AlObwAb_0'
p5995
I6008
sS'HalAwaY_1'
p5996
I6009
sS'muTorAn_1'
p5997
I6010
sS'milaf~ap_1'
p5998
I6011
sS'AlqAQlp_0'
p5999
I6012
sS'ltOxyr_0'
p6000
I6013
sS'muSAlaHap_1'
p6001
I6014
sS'Okdt_0'
p6002
I6015
sS'AlrOs_0'
p6003
I5237
sS'bliyr_1'
p6004
I6017
sS'abbrev'
p6005
I105
sS'tctbh_0'
p6006
I6018
sS'taforiyq_1'
p6007
I6019
sS'00_23_0'
p6008
I75
sS'AlmAQyp_0'
p6009
I6020
sS'Onny_0'
p6010
I6021
sS'AlOmwAl_0'
p6011
I6022
sS'waHodap_2'
p6012
I6023
sS'waHodap_1'
p6013
I6024
sS'waHodap_4'
p6014
I6025
sS'buluwg_1'
p6015
I6026
sS'wHVr_0'
p6016
I6027
sS'nsAQyp_0'
p6017
I6028
sS'4.2650_0'
p6018
I6029
sS'AlOzmp_0'
p6019
I6031
sS'AlcrEyp_0'
p6020
I6032
sS'masoruwq_1'
p6021
I6033
sS'Eidap_1'
p6022
I6034
sS'kArAdzytc_0'
p6023
I6035
sS'AlmrOp_0'
p6024
I6036
sS'OdrkA_0'
p6025
I6037
sS'84_0'
p6026
I6038
sS'gAntz_1'
p6027
I6039
sS'taEoTiyl_1'
p6028
I5403
sS'mcwqp_0'
p6029
I6041
sS'taHam~ul_1'
p6030
I6042
sS'bAHiv_1'
p6031
I6043
sS'wAlOSgr_0'
p6032
I6044
sS'AlOdyAn_0'
p6033
I6045
sS'bAdirap_1'
p6034
I6046
sS'{ixotiSASiy~_1'
p6035
I1000
sS'muHad~ad_1'
p6036
I6048
sS'{it~aSal_1'
p6037
I6049
sS'muEAraDap_1'
p6038
I6050
sS'mazoEuwm_1'
p6039
I5460
sS'6_5_0'
p6040
I3966
sS'AlOsEAr_0'
p6041
I6052
sS'cnyAng_0'
p6042
I6053
sS'gAziy_1'
p6043
I6054
sS'hAnos_1'
p6044
I6055
sS'bcWwn_0'
p6045
I6056
sS'llmcArkp_0'
p6046
I6057
sS'mutajAnis_1'
p6047
I6058
sS'llObHAv_0'
p6048
I7419
sS'miyruw_1'
p6049
I5514
sS'juwn_2'
p6050
I6061
sS'OEqAb_0'
p6051
I6062
sS'maroqaS_1'
p6052
I6063
sS'rQysA_0'
p6053
I6064
sS'muHib~_1'
p6054
I6065
sS'lOrs_0'
p6055
I6066
sS'nufAyap_1'
p6056
I6067
sS'murotafiE_1'
p6057
I6068
sS'kurokiy~_1'
p6058
I6069
sS'lltftyc_0'
p6059
I6070
sS'manoziliy~_1'
p6060
I6071
sS'kaniysap_1'
p6061
I6072
sS'madiynap_2'
p6062
I5588
sS'madiynap_1'
p6063
I6074
sS'baH~Ar_1'
p6064
I6075
sS'bakiyr_1'
p6065
I6076
sS'qadam_1'
p6066
I6077
sS'raHiym_1'
p6067
I5629
sS'mut~azin_1'
p6068
I6079
sS'tOhlh_0'
p6069
I6080
sS'35.37_0'
p6070
I6081
sS'HAn-i_1'
p6071
I6082
sS'>aEAd_1'
p6072
I6083
sS'OfgAnstAn_0'
p6073
I6084
sS'34_87_0'
p6074
I878
sS'ISAbAt_0'
p6075
I5665
sS'._0'
p6076
I6086
sS'nAcT_0'
p6077
I6087
sS'tawAnaY_1'
p6078
I6088
sS'xaroTuwm_1'
p6079
I6089
sS'franosuwA_1'
p6080
I6090
sS'SAHib_1'
p6081
I6091
sS'TAgiy_1'
p6082
I6092
sS'Siyn_1'
p6083
I6093
sS'diykuwjiy_1'
p6084
I6094
sS'lam_1'
p6085
I6095
sS'quronap_1'
p6086
I7427
sS'biyrl_1'
p6087
I6097
sS'AlIbrAhymy_0'
p6088
I6098
sS'yVhbwn_0'
p6089
I6099
sS'muHar~af_1'
p6090
I6100
sS'lVA_0'
p6091
I6101
sS'suwdAniy~_1'
p6092
I6102
sS'layolaY_1'
p6093
I6103
sS'maqohaY_1'
p6094
I532
sS'lIrsAC_0'
p6095
I6105
sS'IncAthA_0'
p6096
I6106
sS'HiwAl_1'
p6097
I6107
sS'taTal~aE_1'
p6098
I6108
sS'wkAtdrAQyp_0'
p6099
I6109
sS'madaniy~_2'
p6100
I6110
sS'AlEAcrp_0'
p6101
I6111
sS'AQtmAn_0'
p6102
I5842
sS'>avonaY_1'
p6103
I6113
sS'wIElAmy_0'
p6104
I6114
sS'tbdO_0'
p6105
I6115
sS'riyADiy~_2'
p6106
I6116
sS'tanozAniyA_1'
p6107
I6117
sS'riyADiy~_1'
p6108
I6118
sS'musotayoqiZ_1'
p6109
I6119
sS'miroHAD_1'
p6110
I5026
sS'jAVbyp_0'
p6111
I6121
sS'AlOdlp_0'
p6112
I6122
sS'OSybt_0'
p6113
I6123
sS'wrQysA_0'
p6114
I6124
sS'nAQbA_0'
p6115
I6125
sS'lIEAdp_0'
p6116
I6126
sS'Alcwfynyp_0'
p6117
I6127
sS'fckrt_0'
p6118
I6128
sS'ra>osmAliy~ap_1'
p6119
I6129
sS'kOs_0'
p6120
I5941
sS'ywldcyf_0'
p6121
I6131
sS'4700_0'
p6122
I6132
sS'16_0'
p6123
I7436
sS'mlyQp_0'
p6124
I6134
sS'OjrthA_0'
p6125
I6135
sS'taqoliyd_1'
p6126
I6136
sS'hiysokiy_1'
p6127
I6137
sS'maEorakap_1'
p6128
I2341
sS'nfVwA_0'
p6129
I6139
sS'1967_0'
p6130
I6140
sS'bAlljwC_0'
p6131
I6141
sS'bOnnA_0'
p6132
I1209
sS'33_0'
p6133
I6143
sS'riymiy~_1'
p6134
I6144
sS'OTnAn_0'
p6135
I6145
sS'qAbuws_1'
p6136
I6146
sS'tabar~aE_1'
p6137
I6147
sS'AlVyn_0'
p6138
I6148
sS'{inotibAh_1'
p6139
I6149
sS'1284_0'
p6140
I6150
sS'tasowiyap_1'
p6141
I6151
sS'fOjAbh_0'
p6142
I6152
sS'maqotal_1'
p6143
I6153
sS'huwnoj_1'
p6144
I6154
sS'qAnuwn_1'
p6145
I6156
sS'jAbir_1'
p6146
I6157
sS'lOEmAlhm_0'
p6147
I6158
sS'mrcHp_0'
p6148
I6159
sS'{isotawoEab_1'
p6149
I6160
sS'AlmsWwl_0'
p6150
I6161
sS'cOn_0'
p6151
I6162
sS'yTmQn_0'
p6152
I6163
sS'Eay~inap_1'
p6153
I6164
sS'juwzif_1'
p6154
I6165
sS'balogrAd_1'
p6155
I6166
sS'manohajiy~_1'
p6156
I6167
sS'AlIslAmy_0'
p6157
I6168
sS'{irofaD~_1'
p6158
I6169
sS'mcddA_0'
p6159
I6170
sS'jadur-u_1'
p6160
I6171
sS'tasodiydap_1'
p6161
I6172
sS'wOhmhA_0'
p6162
I6173
sS'T`ha_1'
p6163
I6174
sS'bmsWwlyAthA_0'
p6164
I6175
sS'sarokiys_1'
p6165
I6176
sS'IcEAl_0'
p6166
I4865
sS'AldqAQq_0'
p6167
I6178
sS'mukar~as_1'
p6168
I6179
sS'tahoriyb_1'
p6169
I6180
sS'wObnAC_0'
p6170
I6181
sS'cwh_0'
p6171
I6182
sS'Eiboriy~_1'
p6172
I6183
sS'tal~ap_1'
p6173
I6184
sS'tasaw~al_1'
p6174
I6185
sS'muEaw~aq_1'
p6175
I6186
sS'{inosaHab_1'
p6176
I6187
sS'kAmAtcw_0'
p6177
I6188
sS'wmWAzrthA_0'
p6178
I7446
sS'munotadaY_1'
p6179
I6190
sS'madoxuwl_1'
p6180
I6191
sS'wcArkt_0'
p6181
I6192
sS'tiyrAnA_1'
p6182
I6193
sS'IyTAlyA_0'
p6183
I6194
sS'jamaE-a_1'
p6184
I6195
sS'OEqb_0'
p6185
I6196
sS'OEDAQhA_0'
p6186
I6197
sS'falosafap_1'
p6187
I6198
sS'yntcrAn_0'
p6188
I6199
sS'Odrjt_0'
p6189
I6200
sS'mahorajAn_1'
p6190
I6201
sS'OlmAnyA_0'
p6191
I6202
sS'IndyAnA_0'
p6192
I5890
sS'Sumuwd_1'
p6193
I6204
sS'{inoqaTaE_1'
p6194
I6205
sS'maxoTuwf_1'
p6195
I6206
sS'bDAQE_0'
p6196
I6207
sS'fAEil_1'
p6197
I6208
sS'fAEil_2'
p6198
I6209
sS'diyniy~_1'
p6199
I6210
sS'tcArlz_0'
p6200
I6211
sS'taTAwal_1'
p6201
I6212
sS'IstrAtyjythA_0'
p6202
I6213
sS'siyjArap_1'
p6203
I6214
sS'lOEyAd_0'
p6204
I6215
sS'wObdY_0'
p6205
I6216
sS'34_0'
p6206
I6217
sS'llOmn_0'
p6207
I5323
sS'xAD-u_1'
p6208
I6219
sS'tmAcyA_0'
p6209
I6220
sS'OwqEt_0'
p6210
I6222
sS'wAlmWtmrAt_0'
p6211
I6223
sS'jar~AH_1'
p6212
I7451
sS'haniy~_1'
p6213
I6225
sS'{iT~ilAE_1'
p6214
I6226
sS'saEoy_1'
p6215
I6227
sS'ODAf_0'
p6216
I3420
sS'lay~in_1'
p6217
I6229
sS'OncTp_0'
p6218
I6230
sS'haziymap_1'
p6219
I6231
sS'balodap_1'
p6220
I6232
sS'tadar~ub_1'
p6221
I6233
sS'salob_1'
p6222
I6235
sS'AlOEwAm_0'
p6223
I6177
sS'AlAstQnAf_0'
p6224
I6237
sS'tcml_0'
p6225
I6238
sS'xaTir_1'
p6226
I6239
sS'galobap_1'
p6227
I6240
sS'marad~_1'
p6228
I6241
sS'yuwnAn_1'
p6229
I6242
sS'na'
p6230
I2
sS'AlOmyrky_0'
p6231
I6243
sS'mAkomAhuwn_1'
p6232
I6244
sS'Orsl_0'
p6233
I6245
sS'kiyniyA_1'
p6234
I6246
sS'OdynA_0'
p6235
I6247
sS'Oryyl_0'
p6236
I6248
sS'AlOxTAr_0'
p6237
I6249
sS'tckylAt_0'
p6238
I6250
sS'IbqACh_0'
p6239
I6251
sS'AlVhAb_0'
p6240
I6252
sS'masoEaY_1'
p6241
I6253
sS'franojiyh_1'
p6242
I6254
sS'zirAEap_1'
p6243
I6255
sS'waziyr_1'
p6244
I6256
sS'wOvAr_0'
p6245
I6257
sS'tOhyl_0'
p6246
I6258
sS'mWqtA_0'
p6247
I6259
sS'llIsEAfAt_0'
p6248
I6260
sS'AlVy_0'
p6249
I6261
sS'EumAniy~_1'
p6250
I6262
sS'{inofajar_1'
p6251
I6263
sS'AlsWAl_0'
p6252
I6264
sS'llqAC_0'
p6253
I6265
sS'waq~aE_1'
p6254
I6266
sS'AlcrAkp_0'
p6255
I6267
sS'mutAbiE_1'
p6256
I6268
sS'AlsmAC_0'
p6257
I6269
sS'harab_1'
p6258
I6270
sS'tAQhp_0'
p6259
I6271
sS'wIdArp_0'
p6260
I6272
sS'wvAQq_0'
p6261
I6273
sS'{inotixAb_1'
p6262
I6274
sS'EAriD_1'
p6263
I6275
sS'AlgVAQy_0'
p6264
I6276
sS'fikor_1'
p6265
I6277
sS'juvomAn_1'
p6266
I6278
sS'OTlqhA_0'
p6267
I6279
sS'wITlAq_0'
p6268
I6280
sS'687_0'
p6269
I6281
sS'DAbiT_1'
p6270
I6282
sS'DAbiT_2'
p6271
I6283
sS'20_0'
p6272
I6284
sS'mcArkp_0'
p6273
I6285
sS'qad~uwmiy_1'
p6274
I6286
sS'wmnAqcth_0'
p6275
I7458
sS'xAlid_1'
p6276
I1158
sS'bctyn_0'
p6277
I6288
sS'watariy~_1'
p6278
I6289
sS'TAqim_1'
p6279
I513
sS'mAtcAlA_0'
p6280
I6291
sS'wrAChm_0'
p6281
I6292
sS'Ojnbyp_0'
p6282
I6293
sS'llOfgAn_0'
p6283
I6294
sS'naboD_1'
p6284
I6295
sS'vAmin_1'
p6285
I6296
sS'IcArp_0'
p6286
I6297
sS'kariym_2'
p6287
I6298
sS'sayorap_1'
p6288
I6299
sS'miEoyAr_1'
p6289
I3617
sS'wIyly_0'
p6290
I6301
sS'bcryp_0'
p6291
I6302
sS'madoEuwm_1'
p6292
I6303
sS'mawoqif_1'
p6293
I6304
sS'taEaz~az_1'
p6294
I6305
sS'wAlOxrY_0'
p6295
I6306
sS'ODEAf_0'
p6296
I6307
sS'bAlAEtdAC_0'
p6297
I6308
sS'{iqotibAs_1'
p6298
I6309
sS'AlOwlmbyp_0'
p6299
I6310
sS'mutaTar~if_1'
p6300
I6311
sS'ActbAk_0'
p6301
I6312
sS'tafak~uk_1'
p6302
I6313
sS'tAkosiy~_1'
p6303
I5238
sS'EunoSuriy~_1'
p6304
I5817
sS'AltfAWl_0'
p6305
I6315
sS'kar~as_1'
p6306
I6316
sS'EAlam_1'
p6307
I6317
sS'dAwud_1'
p6308
I6318
sS'OgAny_0'
p6309
I6319
sS'AlcrktAn_0'
p6310
I6320
sS'fiyatonAm_1'
p6311
I6321
sS'HaZar-u_1'
p6312
I6322
sS'wlIymAnkm_0'
p6313
I6323
sS'mAQdp_0'
p6314
I6324
sS'cbkAt_0'
p6315
I6325
sS'kuwluwniyl_1'
p6316
I6326
sS'biyliyfiylod_1'
p6317
I6327
sS'san~_1'
p6318
I6328
sS'sOqbl_0'
p6319
I6329
sS'miSoriy~_1'
p6320
I6330
sS'prep'
p6321
I243
sS'tadar~ab_1'
p6322
I6332
sS'yilomAZ_1'
p6323
I6333
sS'AlOSEb_0'
p6324
I6334
sS'IlyhA_0'
p6325
I7465
sS'AlfDAQyp_0'
p6326
I6336
sS'salobiy~_1'
p6327
I6337
sS'{isotaEad~_1'
p6328
I6338
sS'zmlAQhA_0'
p6329
I6339
sS'muqAyaDap_1'
p6330
I6340
sS'taHaT~um_1'
p6331
I6341
sS'wOfAd_0'
p6332
I6342
sS'Zahor_1'
p6333
I6343
sS'bAyiron_1'
p6334
I6344
sS'marokaz_1'
p6335
I6345
sS'kuwrosk_1'
p6336
I6346
sS'blAsotiyk_1'
p6337
I6347
sS'Aysyfw_1'
p6338
I6348
sS'lOnny_0'
p6339
I6349
sS'cxSyAt_0'
p6340
I6350
sS'mayodAniy~_1'
p6341
I6351
sS'taEoliyq_1'
p6342
I6352
sS'makosab_1'
p6343
I6353
sS'faSol_1'
p6344
I6354
sS'faSol_2'
p6345
I6355
sS'Alclhwb_0'
p6346
I6356
sS'tarAkam_1'
p6347
I6357
sS'mcwArhA_0'
p6348
I6358
sS'fAlnsAC_0'
p6349
I6359
sS'xmsmAQp_0'
p6350
I6360
sS'OtY_0'
p6351
I6361
sS'tawofiyr_1'
p6352
I6362
sS'tAriyx_1'
p6353
I6363
sS'taEar~af_1'
p6354
I6364
sS'{isotaHoyaY_1'
p6355
I6365
sS'siyAq_1'
p6356
I6366
sS'tiy_1'
p6357
I6367
sS'buwiynus_1'
p6358
I6368
sS'OqAmt_0'
p6359
I6369
sS'tOlyf_0'
p6360
I6370
sS'bOEmAl_0'
p6361
I6371
sS'AlOfgAnyyn_0'
p6362
I6372
sS'AlcywEyp_0'
p6363
I6373
sS'lOEdAd_0'
p6364
I6374
sS'Otkwn_0'
p6365
I6375
sS'karAmap_1'
p6366
I6376
sS'bAlODwAC_0'
p6367
I6377
sS'kuwnoguw_1'
p6368
I6378
sS'safiyh_1'
p6369
I5687
sS'rylAycnz_0'
p6370
I6380
sS'dmAC_0'
p6371
I6203
sS'AlIrhAb_0'
p6372
I6382
sS'OSHAbhA_0'
p6373
I6383
sS'Osfrt_0'
p6374
I6384
sS'suwfoyitiy~_1'
p6375
I6385
sS'rAdiykAliy~_1'
p6376
I6386
sS'Owlmbyk_0'
p6377
I6387
sS'badaniy~_1'
p6378
I6388
sS'kiyn_1'
p6379
I6389
sS'stWdy_0'
p6380
I6390
sS'yuwnis_1'
p6381
I6391
sS'{iEotiqAl_1'
p6382
I6392
sS'wOxTO_0'
p6383
I6393
sS'>aboram_1'
p6384
I2619
sS'3.5_0'
p6385
I6394
sS'wAlOxbAr_0'
p6386
I6395
sS'Tib~_1'
p6387
I6396
sS'lawon_1'
p6388
I6397
sS'AlOql_0'
p6389
I4910
sS'AlOss_0'
p6390
I7479
sS'7_18_0'
p6391
I3630
sS'IHyAC_0'
p6392
I6401
sS'juborAn_1'
p6393
I6402
sS'wOwtwbysA_0'
p6394
I6403
sS'gAliyriy~_1'
p6395
I6404
sS'qaron_1'
p6396
I6405
sS'OrDh_0'
p6397
I6406
sS'wnnAqchA_0'
p6398
I6407
sS'rAyos_1'
p6399
I6408
sS'tamak~un_1'
p6400
I6409
sS'{imotad~_1'
p6401
I6410
sS'AlMdmy_0'
p6402
I6412
sS'dAn-i_1'
p6403
I6413
sS'sAnad_1'
p6404
I6414
sS'63_0'
p6405
I6415
sS'AlOrkAn_0'
p6406
I6416
sS'lIdAnp_0'
p6407
I6417
sS'>arogam_1'
p6408
I6418
sS'liygofiynoskiy_1'
p6409
I6419
sS'najom_1'
p6410
I6420
sS'tawag~ul_1'
p6411
I6421
sS'wOmyrkA_0'
p6412
I6422
sS'cArwn_0'
p6413
I6423
sS'majariy~_1'
p6414
I6424
sS'yWkd_0'
p6415
I6425
sS'wmQp_0'
p6416
I6426
sS'daliyl_1'
p6417
I6427
sS'maHal~iy~_1'
p6418
I6428
sS'Ojryt_0'
p6419
I6429
sS'AlOsr_0'
p6420
I6430
sS'cAHnAt_0'
p6421
I6431
sS'HAsim_1'
p6422
I6432
sS'Odlp_0'
p6423
I6433
sS'OETt_0'
p6424
I6434
sS'IdArp_0'
p6425
I6435
sS'HamodAn_1'
p6426
I6436
sS'waraY_1'
p6427
I6437
sS'bAlwsAQl_0'
p6428
I6496
sS'wdAQE_0'
p6429
I190
sS'xAn-u_1'
p6430
I6439
sS'muzAriE_1'
p6431
I6440
sS'bOnhm_0'
p6432
I222
sS'8.5_0'
p6433
I5660
sS'tilAwap_1'
p6434
I6443
sS'Daruwriy~_1'
p6435
I6444
sS'fiydoyuw_1'
p6436
I6445
sS'fawoq_1'
p6437
I6446
sS'%_0'
p6438
I6447
sS'AlOsrAC_0'
p6439
I6448
sS'>amotan_1'
p6440
I6449
sS'wavob_1'
p6441
I6450
sS'fAtiHap_1'
p6442
I313
sS'wtcryn_0'
p6443
I6452
sS'dAyan_1'
p6444
I325
sS'baHorayoniy~_1'
p6445
I6454
sS'nbO_0'
p6446
I6455
sS'OHb_0'
p6447
I6456
sS'AlnAcTp_0'
p6448
I6457
sS'Ozmth_0'
p6449
I6458
sS'AlIElAmy_0'
p6450
I6459
sS'AlcwATQ_0'
p6451
I6460
sS'Ojbt_0'
p6452
I6461
sS'saTowap_1'
p6453
I367
sS'tarak~az_1'
p6454
I6463
sS'{irotadaY_1'
p6455
I6464
sS'OxyrA_0'
p6456
I6465
sS'mAjid_1'
p6457
I6466
sS'500_0'
p6458
I4184
sS'Eamiyq_1'
p6459
I6468
sS'xaTaf-i_1'
p6460
I6469
sS'maloEab_1'
p6461
I6470
sS'Eabowap_1'
p6462
I6471
sS'yuwliyuw_1'
p6463
I5967
sS'yahuwdiy~_1'
p6464
I6473
sS'yahuwdiy~_2'
p6465
I6474
sS'AlOfgAnyp_0'
p6466
I6475
sS'ziy~_1'
p6467
I6476
sS'dwcAn_0'
p6468
I6477
sS'AlOhrAm_0'
p6469
I6478
sS'whyQp_0'
p6470
I6479
sS'jAQzp_0'
p6471
I6480
sS'kliyriydiys_1'
p6472
I6481
sS'AlcwTyn_0'
p6473
I6482
sS'tajohiyz_1'
p6474
I6483
sS'taHAluf_1'
p6475
I6484
sS'makosiykiy~_1'
p6476
I6485
sS'sajon_1'
p6477
I6486
sS'hujuwm_1'
p6478
I6487
sS'wEcryn_0'
p6479
I6488
sS'OHZY_0'
p6480
I6489
sS'mutaEal~iq_1'
p6481
I6491
sS'flAycr_0'
p6482
I6492
sS'>arosal_1'
p6483
I518
sS'qad~as_1'
p6484
I6494
sS'miydAliyap_1'
p6485
I6495
sS'Zahar-a_1'
p6486
I5805
sS'wOcArt_0'
p6487
I6497
sS'nOty_0'
p6488
I6498
sS'OcrnA_0'
p6489
I6499
sS'najol_1'
p6490
I7495
sS'{it~izAn_1'
p6491
I6501
sS'bAlmbAdQ_0'
p6492
I6502
sS'naS~ab_1'
p6493
I6503
sS'jAriy_1'
p6494
I6504
sS'wafod_1'
p6495
I6505
sS'mcyEy_0'
p6496
I6506
sS'ray~_1'
p6497
I6507
sS'rawiy~ap_1'
p6498
I6508
sS'tarAjaE_1'
p6499
I6509
sS'fAntmAC_0'
p6500
I6510
sS'tfAWlA_0'
p6501
I6511
sS'tHVyr_0'
p6502
I475
sS'widAd_2'
p6503
I6513
sS'kuwnotiy_1'
p6504
I6514
sS'AlrQAsy_0'
p6505
I6515
sS'rum~An_1'
p6506
I6228
sS'7375_0'
p6507
I6517
sS'danimArok_1'
p6508
I6518
sS'mcAp_0'
p6509
I615
sS'muwAliy_1'
p6510
I6520
sS'naHonu_1'
p6511
I620
sS'faDaH-a_1'
p6512
I6522
sS'wAEiy_1'
p6513
I6523
sS'saEaY-a_1'
p6514
I6524
sS'OtAl_0'
p6515
I646
sS'wVkr_0'
p6516
I6526
sS'musotaqobil_1'
p6517
I673
sS'wOrDhA_0'
p6518
I6528
sS'vinoy_1'
p6519
I6529
sS'HVf_0'
p6520
I6530
sS'buwliysAriyuw_1'
p6521
I6531
sS'{inodalaE_1'
p6522
I6532
sS'kuwmunwilov_1'
p6523
I6533
sS'mAQp_0'
p6524
I6534
sS'rasam-u_1'
p6525
I6535
sS'wlOwzbkstAn_0'
p6526
I6536
sS'IflAs_0'
p6527
I6537
sS'manofaY_1'
p6528
I6538
sS'TlAQE_0'
p6529
I6539
sS'AlIEfACAt_0'
p6530
I6540
sS'riyH_1'
p6531
I6541
sS'AlOjnbyp_0'
p6532
I6542
sS'katab-u_1'
p6533
I6543
sS'19_0'
p6534
I791
sS'stxcAh_0'
p6535
I6545
sS'taHowiyl_1'
p6536
I6546
sS'lwzrAC_0'
p6537
I6547
sS'Altcbyh_0'
p6538
I6548
sS'siyng_1'
p6539
I6549
sS'muxotabar_1'
p6540
I6550
sS'Almncwdp_0'
p6541
I6551
sS'yuwguwsolAfiy~_1'
p6542
I6552
sS'biyAr_1'
p6543
I6553
sS'wAlIDAfy_0'
p6544
I6554
sS'AlnAQyp_0'
p6545
I6555
sS'qibal_1'
p6546
I6556
sS'Earoqalap_1'
p6547
I6557
sS'EariyD_1'
p6548
I6558
sS'11_0'
p6549
I6559
sS'IjmAEA_0'
p6550
I6560
sS'AljzAQryyn_0'
p6551
I6561
sS'qawoqAz_1'
p6552
I6563
sS'siydoniy_1'
p6553
I6564
sS'jAhid_1'
p6554
I6565
sS'OSlA_0'
p6555
I7371
sS'talaw~uv_1'
p6556
I6566
sS'mutamAsik_1'
p6557
I6567
sS'IsnAd_0'
p6558
I6568
sS'yiyriy_1'
p6559
I6569
sS'tanAqal_1'
p6560
I6570
sS'Hadiyv_1'
p6561
I6571
sS'Hadiyv_2'
p6562
I6572
sS'Osfh_0'
p6563
I6573
sS'HADir_1'
p6564
I6574
sS'kaboH_1'
p6565
I6575
sS'chr_0'
p6566
I6236
sS'ruwH_1'
p6567
I6577
sS'girAr_1'
p6568
I6578
sS'taSaw~uf_1'
p6569
I6579
sS'wud~iy~_1'
p6570
I6580
sS'AltnfyV_0'
p6571
I6581
sS'wHlfAWh_0'
p6572
I6582
sS'Earabiy~_1'
p6573
I6583
sS'Earabiy~_2'
p6574
I1011
sS'kVlk_0'
p6575
I6585
sS'SAniE_1'
p6576
I6586
sS'hal_1'
p6577
I6587
sS'OqAm_0'
p6578
I6588
sS'DAhaY_1'
p6579
I6589
sS'cQ_0'
p6580
I6590
sS'>aHoraj_1'
p6581
I6591
sS'Alcr_0'
p6582
I6592
sS'EaSam-i_1'
p6583
I6593
sS'Oy_0'
p6584
I6594
sS'muTaw~ir_1'
p6585
I6595
sS'chdthA_0'
p6586
I1070
sS'lIqrArhA_0'
p6587
I6597
sS'{isotiEAdap_1'
p6588
I6598
sS'murAqib_1'
p6589
I1103
sS'OtlAntA_0'
p6590
I6600
sS'wyWydwn_0'
p6591
I1132
sS'InhAQhA_0'
p6592
I6602
sS'garaDiy~_1'
p6593
I6603
sS'{inotihAk_2'
p6594
I6604
sS'lafat-i_1'
p6595
I6605
sS'AljzAC_0'
p6596
I6606
sS'{inotihAk_1'
p6597
I6607
sS'OzhArh_0'
p6598
I6608
sS'yAtuwm_1'
p6599
I6609
sS'bAlActrAk_0'
p6600
I6610
sS'laHad_1'
p6601
I6611
sS'ziymobAbowiy_1'
p6602
I6612
sS'{isotahal~_1'
p6603
I6613
sS'waHiyd_2'
p6604
I6614
sS'taEAqud_1'
p6605
I6615
sS'miloyuwn_1'
p6606
I5089
sS'kuwriy~_1'
p6607
I6617
sS'jaEol_1'
p6608
I6618
sS'lltOkd_0'
p6609
I6619
sS'AlqAQdAn_0'
p6610
I6620
sS'mamoduwd_1'
p6611
I6621
sS'wOwzbkstAn_0'
p6612
I6622
sS'muSir~_1'
p6613
I6623
sS'qal~Ab_1'
p6614
I6624
sS'kAf~ap_1'
p6615
I6625
sS'baromiyl_1'
p6616
I6626
sS'19_00_0'
p6617
I5642
sS'ObdY_0'
p6618
I1284
sS'TAjiykisotAn_1'
p6619
I6629
sS'Ixwthm_0'
p6620
I6630
sS'taEAZam_1'
p6621
I6631
sS'AlOdwyp_0'
p6622
I6632
sS'HAlap_1'
p6623
I6633
sS'AlIbqAC_0'
p6624
I6634
sS'nxcY_0'
p6625
I6635
sS'Haras_1'
p6626
I1326
sS'IsTfAn_0'
p6627
I6637
sS'taEal~aq_1'
p6628
I7521
sS'OmrykA_0'
p6629
I6639
sS'taHad~ad_1'
p6630
I6640
sS'tawaf~aY_1'
p6631
I6641
sS'AlmEcr_0'
p6632
I6642
sS'ziyAdap_1'
p6633
I6643
sS'{iHotafal_1'
p6634
I6644
sS'wAEtVr_0'
p6635
I6645
sS'qazowiyn_1'
p6636
I6646
sS'qbAQl_0'
p6637
I6647
sS'OEd_0'
p6638
I6648
sS'Harofiy~_1'
p6639
I6649
sS'lqACAt_0'
p6640
I6650
sS'bAlIEdAm_0'
p6641
I1407
sS'tafokiyk_1'
p6642
I6652
sS'jasad_1'
p6643
I1425
sS'AltOhyl_0'
p6644
I6654
sS'{it~aqaY_1'
p6645
I6655
sS'Oktwbr_0'
p6646
I6656
sS'maqobuwl_1'
p6647
I6657
sS'wAlOrdn_0'
p6648
I6658
sS'cbyh_0'
p6649
I6659
sS'sinot_1'
p6650
I6660
sS'AlkOs_0'
p6651
I6661
sS'OfAd_0'
p6652
I6662
sS'kalimap_1'
p6653
I6663
sS'jadowal_2'
p6654
I6664
sS'crf_0'
p6655
I6665
sS'muHam~al_1'
p6656
I6666
sS'musobaq_1'
p6657
I6667
sS'cjrp_0'
p6658
I6668
sS'munofaSil_1'
p6659
I6669
sS'{iDoTihAd_1'
p6660
I1053
sS'vAbit_1'
p6661
I6671
sS'{isotaboEad_1'
p6662
I1522
sS'mubArak_1'
p6663
I6673
sS'AlrQysyAn_0'
p6664
I6674
sS'AlOwrwbyyn_0'
p6665
I1541
sS'wOmn_0'
p6666
I6676
sS'Okvr_0'
p6667
I6677
sS'muwruwmobiy_1'
p6668
I6678
sS'muSam~im_1'
p6669
I6679
sS'wAlcrAQE_0'
p6670
I6680
sS'masolak_1'
p6671
I1564
sS'AlOsTwl_0'
p6672
I6682
sS'yadawiy~_1'
p6673
I6683
sS'mAjiyk_1'
p6674
I6684
sS'mOmOtA_0'
p6675
I6685
sS'53_0'
p6676
I6686
sS'maforuwD_1'
p6677
I6687
sS'SayodalAniy~_1'
p6678
I6411
sS'wAlsWAl_0'
p6679
I6689
sS'naziyh_1'
p6680
I6690
sS'munAfis_1'
p6681
I6691
sS'On_0'
p6682
I6692
sS'AlIyjAbyp_0'
p6683
I6693
sS'tAm~_1'
p6684
I6694
sS'Orwn_0'
p6685
I6695
sS'musotaHiq~_1'
p6686
I6696
sS'bAyokuwn_1'
p6687
I6697
sS'bAbA_1'
p6688
I6698
sS'Eajoz_1'
p6689
I7532
sS'fiborAyir_1'
p6690
I1683
sS'bTyQA_0'
p6691
I6701
sS'SAdaf_1'
p6692
I6702
sS'>arAH_1'
p6693
I6703
sS'wOSdr_0'
p6694
I6704
sS'niy~ap_1'
p6695
I6705
sS'llfAQzyn_0'
p6696
I6706
sS'tamoyAT_1'
p6697
I6707
sS'biqAE_2'
p6698
I6708
sS'Had~ad_1'
p6699
I6709
sS'{isotagorab_1'
p6700
I1717
sS'suwr_1'
p6701
I1726
sS'tuwnis_1'
p6702
I6712
sS'naSorAllh_1'
p6703
I6713
sS'HamAs_1'
p6704
I6714
sS'fahom_1'
p6705
I6715
sS'AlMlp_0'
p6706
I6716
sS'wOjjt_0'
p6707
I6717
sS'HamAdap_1'
p6708
I6718
sS'tHVyry_0'
p6709
I6719
sS'OwlymbyA_0'
p6710
I6720
sS'IqnAEh_0'
p6711
I6721
sS'yuwnAniy~_1'
p6712
I6722
sS'hadam-i_1'
p6713
I6723
sS'ycml_0'
p6714
I6724
sS'{isotikomAl_1'
p6715
I6725
sS'qaEoqaEap_1'
p6716
I1827
sS'fcl_0'
p6717
I6727
sS'bayot_3'
p6718
I6728
sS'bayot_1'
p6719
I664
sS'Hiyn_1'
p6720
I6730
sS'waliy~_1'
p6721
I6731
sS'lubonAniy~_1'
p6722
I6732
sS'wAlxrAQT_0'
p6723
I6733
sS'IbqAC_0'
p6724
I6734
sS'IyfAnwf_0'
p6725
I6735
sS'malak-ia_1'
p6726
I6736
sS'jawohar_3'
p6727
I6737
sS'vam~apa_1'
p6728
I6738
sS'AlmrcHp_0'
p6729
I6739
sS'maEonawiy~_1'
p6730
I929
sS'rAgib_1'
p6731
I6741
sS'rAgib_2'
p6732
I6742
sS'liyfirbuwl_1'
p6733
I6743
sS'manoSib_1'
p6734
I6744
sS'stcArk_0'
p6735
I6745
sS'cxSyp_0'
p6736
I6746
sS'OEdAdh_0'
p6737
I6747
sS'taHiy~ap_1'
p6738
I3546
sS'wmWssAth_0'
p6739
I6749
sS'Ecr_0'
p6740
I6750
sS'rycAr_0'
p6741
I6751
sS'kuwnoj_1'
p6742
I6752
sS'balAg_1'
p6743
I6753
sS'xadam-iu_1'
p6744
I6754
sS'jalas-i_1'
p6745
I6755
sS'wVAk_0'
p6746
I6756
sS'kcwf_0'
p6747
I6757
sS'ramoy_1'
p6748
I6758
sS'taxal~uS_1'
p6749
I6759
sS'EirAqiy~_1'
p6750
I6760
sS'AlIyTAly_0'
p6751
I6761
sS'mafoquwd_1'
p6752
I6762
sS'llIqAlp_0'
p6753
I6763
sS'IHdAhn_0'
p6754
I6764
sS'Ondrlxt_0'
p6755
I6765
sS'qamar_1'
p6756
I6766
sS'cAC_0'
p6757
I6767
sS'{inodaraj_1'
p6758
I6768
sS'sumoEap_1'
p6759
I6769
sS'xaS~-u_1'
p6760
I6770
sS'OHrzA_0'
p6761
I6771
sS'tadoriyb_1'
p6762
I6772
sS'tamAdaY_1'
p6763
I6773
sS'kuwsotAriykA_1'
p6764
I1268
sS'ruws_1'
p6765
I6774
sS'hyQtnA_0'
p6766
I6775
sS'cjb_0'
p6767
I6776
sS'qAQd_0'
p6768
I6777
sS'bay~in_1'
p6769
I6778
sS'Haj~Ar_1'
p6770
I6779
sS'EASimap_1'
p6771
I6780
sS'>amoDaY_1'
p6772
I2141
sS'ItmAm_0'
p6773
I3779
sS'cjE_0'
p6774
I6783
sS'wAsiE_1'
p6775
I6785
sS'mihoniy~_1'
p6776
I6786
sS'AlAntEAc_0'
p6777
I6787
sS'kAbiylA_1'
p6778
I6788
sS'qAtil_1'
p6779
I6789
sS'lOy_0'
p6780
I6790
sS'AlOkAdymyp_0'
p6781
I6791
sS'llVhAb_0'
p6782
I6792
sS'mubotagaY_1'
p6783
I6793
sS'1200_0'
p6784
I6794
sS'tAyolanodiy~_1'
p6785
I6795
sS'mut~aSil_1'
p6786
I2242
sS'HakaY-i_1'
p6787
I6797
sS'Hamodayon_1'
p6788
I2259
sS'wOfDl_0'
p6789
I1032
sS'wISdAr_0'
p6790
I6800
sS'170_0'
p6791
I6801
sS'buwnoyA_1'
p6792
I6802
sS'{isotirAHap_2'
p6793
I6803
sS'{isotirAHap_1'
p6794
I6804
sS'twdwrwfytc_0'
p6795
I6805
sS'qAQm_0'
p6796
I6806
sS'lIsrAQyl_0'
p6797
I1130
sS'Hayod_1'
p6798
I6808
sS'HAbil_1'
p6799
I2331
sS'lrQAsp_0'
p6800
I6810
sS'munoTalaq_1'
p6801
I6811
sS'qaboDap_1'
p6802
I7555
sS'lqACh_0'
p6803
I6813
sS'Alkcf_0'
p6804
I6814
sS'qaD~-u_1'
p6805
I6815
sS'taSodiyr_1'
p6806
I6816
sS'lawoHap_1'
p6807
I6817
sS'Saroxap_1'
p6808
I6818
sS'AlncATAt_0'
p6809
I6819
sS'wOrslt_0'
p6810
I6821
sS'AlOzyAC_0'
p6811
I1133
sS'94_0'
p6812
I6823
sS'130_0'
p6813
I6824
sS'qudorap_1'
p6814
I2400
sS'wyWkd_0'
p6815
I6826
sS'AlqbAQl_0'
p6816
I2013
sS'AVVAk_0'
p6817
I6828
sS'tctyt_0'
p6818
I6829
sS'ramoyap_1'
p6819
I6830
sS'yOty_0'
p6820
I6831
sS'AlnAcbp_0'
p6821
I6832
sS'{isomiy~_1'
p6822
I6833
sS'muHAwalap_1'
p6823
I6834
sS'tajAwaz_1'
p6824
I6835
sS'Eam~An_1'
p6825
I6836
sS'{ijotiyAz_1'
p6826
I2464
sS'hAtifiy~_1'
p6827
I6838
sS'OfrAdhA_0'
p6828
I6839
sS'AlOxrY_0'
p6829
I6840
sS'taZAhurap_1'
p6830
I6841
sS'IsrAQyl_0'
p6831
I6842
sS'Eadol_1'
p6832
I6843
sS'muwaH~ad_1'
p6833
I6844
sS'Zuhor_1'
p6834
I6845
sS'tamat~aE_1'
p6835
I6846
sS'OSbHt_0'
p6836
I6847
sS'xaziynap_1'
p6837
I6848
sS'tanoZiymiy~_1'
p6838
I6849
sS'manoTiq_1'
p6839
I6850
sS'bOhmyp_0'
p6840
I6851
sS'>ayoqaZ_1'
p6841
I6852
sS'{inotaZar_1'
p6842
I6853
sS'>awoDaH_1'
p6843
I6854
sS'taEoqiyd_1'
p6844
I6855
sS'cbAn_0'
p6845
I6856
sS'AlOESAb_0'
p6846
I6857
sS'AlcnyEp_0'
p6847
I6858
sS'Alcyx_0'
p6848
I6859
sS'giyniy~_1'
p6849
I2603
sS'Ecryn_0'
p6850
I6861
sS'tOmynA_0'
p6851
I6862
sS'say~ab_1'
p6852
I6863
sS'Hcd_0'
p6853
I6864
sS'rakuwb_1'
p6854
I6865
sS'AljrAQm_0'
p6855
I2625
sS'raSAS_1'
p6856
I6867
sS'OjrAhA_0'
p6857
I6868
sS'AlOmm_0'
p6858
I6869
sS'tArapF_1'
p6859
I6870
sS'dalow_1'
p6860
I6871
sS'talaq~aY_1'
p6861
I6872
sS'brytyc_0'
p6862
I6873
sS'AlIfAdp_0'
p6863
I6874
sS'IntAjhA_0'
p6864
I6875
sS'musotaEid~_1'
p6865
I6876
sS'suwiydiy~_1'
p6866
I6877
sS'liydz_1'
p6867
I6878
sS'murAfiq_1'
p6868
I6879
sS'OnqAD_0'
p6869
I5865
sS'samAH_1'
p6870
I6880
sS'AlcEb_0'
p6871
I6881
sS'tamaz~uq_1'
p6872
I6882
sS'llcrTp_0'
p6873
I6883
sS'OmynA_0'
p6874
I6884
sS'SnEAC_0'
p6875
I6885
sS'Altcykyp_0'
p6876
I6886
sS'wOnhY_0'
p6877
I6887
sS'wcArk_0'
p6878
I6888
sS'ODrAr_0'
p6879
I2747
sS'Irytryh_0'
p6880
I2750
sS'Easiy~_1'
p6881
I6891
sS'IsbAnyp_0'
p6882
I6892
sS'lmnAqcp_0'
p6883
I2784
sS'*`lika_1'
p6884
I5452
sS'kal~af_1'
p6885
I6895
sS'IntAjyp_0'
p6886
I6896
sS'xir~iyj_1'
p6887
I6897
sS'bAS_1'
p6888
I6898
sS'layolap_1'
p6889
I6899
sS'lIjrACAt_0'
p6890
I2830
sS'fAriq_1'
p6891
I6901
sS'AlrOy_0'
p6892
I6902
sS'lAfitap_1'
p6893
I6903
sS'tOxrt_0'
p6894
I6904
sS'{it~asam_1'
p6895
I6905
sS'{iHotal~_1'
p6896
I6907
sS'muT~aliE_1'
p6897
I6908
sS'Eas~Af_1'
p6898
I6909
sS'qaduwm_1'
p6899
I6910
sS'mAras_1'
p6900
I6911
sS'AlOfgAny_0'
p6901
I6912
sS'bIcArth_0'
p6902
I2902
sS'wOsywyA_0'
p6903
I6914
sS'xArij_1'
p6904
I6915
sS'Hamiyd_1'
p6905
I6916
sS'Hanafiy~_2'
p6906
I6917
sS'llOmm_0'
p6907
I6918
sS'nasaj-ui_1'
p6908
I6919
sS'AlOwHd_0'
p6909
I6920
sS'tOhlt_0'
p6910
I6921
sS'IV_0'
p6911
I2968
sS'ObwAb_0'
p6912
I2977
sS'tOml_0'
p6913
I6924
sS'tamohiyd_1'
p6914
I6925
sS'ruwbinosuwn_1'
p6915
I6926
sS'AlIrhAby_0'
p6916
I6927
sS'maEolam_1'
p6917
I6928
sS'banamA_1'
p6918
I6929
sS'mutaqad~im_1'
p6919
I6930
sS'jal~-i_1'
p6920
I6931
sS'llAltqAC_0'
p6921
I6932
sS'sluwfiyniy~_1'
p6922
I6933
sS'muTAradap_1'
p6923
I6934
sS'mafoSuwl_1'
p6924
I6935
sS'bOhmyth_0'
p6925
I6936
sS'niqAbap_1'
p6926
I6937
sS'OlfA_0'
p6927
I6938
sS'cAcp_0'
p6928
I6939
sS'vaqAfiy~_1'
p6929
I2442
sS'wAqif_1'
p6930
I6941
sS'45_0'
p6931
I6942
sS'1997_0'
p6932
I6943
sS'waqoE_1'
p6933
I6944
sS'muEasokar_1'
p6934
I6945
sS'qArab_1'
p6935
I6946
sS'wazab_1'
p6936
I3079
sS'wAlcyx_0'
p6937
I3081
sS'juwnoz_1'
p6938
I5971
sS'dab~Ag_1'
p6939
I6949
sS'0.8935_0'
p6940
I3099
sS'sbiyrz_1'
p6941
I6951
sS'maEorifap_1'
p6942
I6952
sS'mutaxaS~iS_1'
p6943
I6953
sS'saxiyf_1'
p6944
I6954
sS'mabohuwr_1'
p6945
I6955
sS'wIjrAC_0'
p6946
I6956
sS'AlchdAC_0'
p6947
I6957
sS'tiym_1'
p6948
I6958
sS'OlgY_0'
p6949
I6959
sS'taHaT~am_1'
p6950
I3183
sS'madAr_1'
p6951
I6961
sS'AlmstcAryn_0'
p6952
I6962
sS'siyrojiy_1'
p6953
I6963
sS'tmcyT_0'
p6954
I3192
sS'EirAk_1'
p6955
I6965
sS'HaT~-u_1'
p6956
I6966
sS'dAniyAl_1'
p6957
I6967
sS'masojid_1'
p6958
I6968
sS'wIbqAC_0'
p6959
I6969
sS'wAdiy_1'
p6960
I6970
sS'mahojar_1'
p6961
I6971
sS'tadoliyl_1'
p6962
I6972
sS'tabAyan_1'
p6963
I3723
sS'OEmAl_0'
p6964
I6974
sS'zAQfp_0'
p6965
I6975
sS'Eadal-i_1'
p6966
I6976
sS'dAEiy_2'
p6967
I6977
sS'{isotiqAlap_1'
p6968
I6978
sS'dAEiy_1'
p6969
I3279
sS'mutanAfis_1'
p6970
I6980
sS'SabAH_1'
p6971
I7585
sS'jumorukiy~_1'
p6972
I6982
sS'ImkAn_0'
p6973
I6983
sS'OqrthA_0'
p6974
I3233
sS'SuwmAliy~_1'
p6975
I6985
sS'sahar_1'
p6976
I6986
sS'mfAjOp_0'
p6977
I6987
sS'1957_0'
p6978
I6988
sS'bjrAQm_0'
p6979
I6989
sS'laka>-a_1'
p6980
I6990
sS'wOwstrAly_0'
p6981
I6991
sS'990_0'
p6982
I3387
sS'EaqAriy~_1'
p6983
I6993
sS'mWlm_0'
p6984
I6994
sS'IylyA_0'
p6985
I6995
sS'triyniydAd_1'
p6986
I6996
sS'makotab_1'
p6987
I6997
sS'qisom_1'
p6988
I6998
sS'ranotiys_1'
p6989
I6999
sS'miylAnuw_1'
p6990
I7000
sS'xalal_1'
p6991
I7001
sS'nADal_1'
p6992
I7002
sS'AlIlgAC_0'
p6993
I7003
sS'bAlig_1'
p6994
I7004
sS'AlcAbp_0'
p6995
I7005
sS'xafor_1'
p6996
I7006
sS'OwqfwA_0'
p6997
I7007
sS'muboham_1'
p6998
I333
sS'bAlVnb_0'
p6999
I3441
sS'taDoHiy_1'
p7000
I7010
sS'tamay~az_1'
p7001
I7011
sS'kuwbA_1'
p7002
I7012
sS'Oxrjh_0'
p7003
I5008
sS'250_0'
p7004
I7014
sS'sariyE_1'
p7005
I3474
sS'wOwdE_0'
p7006
I7016
sS'hayokalap_1'
p7007
I7017
sS'OHml_0'
p7008
I7018
sS'IdAnth_0'
p7009
I7019
sS'Huduwdiy~_1'
p7010
I7020
sS'sarAH_1'
p7011
I7021
sS'Owrdth_0'
p7012
I3984
sS'dwxy_1'
p7013
I1388
sS'AlmsWwlAn_0'
p7014
I3529
sS'{isotaEAn_1'
p7015
I7025
sS'taqad~am_1'
p7016
I7026
sS'xanaq-u_1'
p7017
I4473
sS'AlcbAn_0'
p7018
I7028
sS'nAqilap_1'
p7019
I7029
sS'9_2_0'
p7020
I1757
sS'kam~_1'
p7021
I7030
sS'yanobuwE_1'
p7022
I7031
sS'OfAdt_0'
p7023
I7032
sS'AlmbdO_0'
p7024
I7033
sS'HaD~-u_1'
p7025
I7034
sS'taEATiy_1'
p7026
I2974
sS'wbckl_0'
p7027
I7036
sS'mArkws_1'
p7028
I3586
sS'maHal~ap_1'
p7029
I3592
sS'bAwtcr_0'
p7030
I7039
sS'maHal~ap_2'
p7031
I7040
sS'550_0'
p7032
I7041
sS'OxTAr_0'
p7033
I7042
sS'jid~_1'
p7034
I7043
sS'tawaS~al_1'
p7035
I3616
sS'binoziyn_1'
p7036
I3627
sS'miSor_1'
p7037
I3631
sS'{inoTibAE_1'
p7038
I7047
sS'bilA_1'
p7039
I7048
sS'AltjAVbAt_0'
p7040
I7049
sS'biyhAriy_1'
p7041
I7050
sS'xariyTap_1'
p7042
I7051
sS'xidomap_1'
p7043
I7052
sS'tamaz~aq_1'
p7044
I3661
sS'barAziyl_1'
p7045
I7055
sS'30_0'
p7046
I7056
sS'AlmstcAr_0'
p7047
I7057
sS'AlHyAC_0'
p7048
I7058
sS'{inotaSar_1'
p7049
I7059
sS'lITlAq_0'
p7050
I7060
sS'kuwsuwfuw_1'
p7051
I7061
sS'tarojam_1'
p7052
I7062
sS'OmrA_0'
p7053
I7063
sS'nadowap_1'
p7054
I3717
sS'baEabodA_1'
p7055
I7065
sS'38_0'
p7056
I7066
sS'qAbil_1'
p7057
I7067
sS'AlnsAC_0'
p7058
I7068
sS'AlIntAjyp_0'
p7059
I7069
sS'fayonap_1'
p7060
I7070
sS'02149_0'
p7061
I7071
sS'126_0'
p7062
I7072
sS'Tarod_1'
p7063
I3736
sS'IHdY_0'
p7064
I7074
sS'OErbt_0'
p7065
I7075
sS'Haliyf_1'
p7066
I7076
sS'ycrf_0'
p7067
I7596
sS'munaZ~amap_1'
p7068
I7078
sS'!_0'
p7069
I7079
sS'IrhAbyp_0'
p7070
I7080
sS'xalowap_1'
p7071
I7081
sS'SalAp_1'
p7072
I7082
sS'Vhbyp_0'
p7073
I7083
sS'AlmWss_0'
p7074
I7084
sS'wHcd_0'
p7075
I7086
sS'tanomiyap_1'
p7076
I7087
sS'AstdEAC_0'
p7077
I7088
sS'yafoTap_1'
p7078
I7089
sS'haz~ap_1'
p7079
I7090
sS'ytrOs_0'
p7080
I7091
sS'waZiyfap_1'
p7081
I7092
sS'ITAr_0'
p7082
I7093
sS'wIsbAnyA_0'
p7083
I7094
sS'AlVAkrp_0'
p7084
I7095
sS'xbrAC_0'
p7085
I7096
sS'fiylAdilofiyA_1'
p7086
I3919
sS'Onfshm_0'
p7087
I7098
sS'raqiyb_1'
p7088
I7099
sS'tsuwbiyl_1'
p7089
I3948
sS'muHAdavap_1'
p7090
I7101
sS'dam~ar_1'
p7091
I7102
sS'74_0'
p7092
I6314
sS'dufoEap_1'
p7093
I7104
sS'ncrth_0'
p7094
I7105
sS'chAb_0'
p7095
I7106
sS'{inoEikAs_1'
p7096
I3745
sS'OcxAS_0'
p7097
I7107
sS'maraD_1'
p7098
I7108
sS'AlmAC_0'
p7099
I4012
sS'Alcrsp_0'
p7100
I7110
sS'kiyngostuwn_1'
p7101
I7111
sS'fDAC_0'
p7102
I7112
sS'cyrAk_0'
p7103
I7113
sS'dAriy_1'
p7104
I7114
sS'83_0'
p7105
I7115
sS'bnAC_0'
p7106
I7116
sS'niSof_1'
p7107
I7117
sS'OSybA_0'
p7108
I7118
sS'wOsAmp_0'
p7109
I7119
sS'taw~aj_1'
p7110
I7120
sS'AlIjmAlyp_0'
p7111
I7121
sS'taEaq~ul_1'
p7112
I2995
sS'{ilotafat_1'
p7113
I7123
sS'Oyrs_0'
p7114
I7124
sS'Eadiyd_1'
p7115
I7125
sS'wAlOEyAd_0'
p7116
I7126
sS'jumoEAn_1'
p7117
I7127
sS'nAdaY_1'
p7118
I7128
sS'gAdar_1'
p7119
I7129
sS'{isotaTAE_1'
p7120
I7130
sS'hAdiy_2'
p7121
I4165
sS'IyAb_0'
p7122
I7132
sS'tavobiyt_1'
p7123
I7133
sS'AlIvArp_0'
p7124
I7134
sS'biyriy_1'
p7125
I7135
sS'clyTA_0'
p7126
I7136
sS'AlOwnrwA_0'
p7127
I7137
sS'AljrOp_0'
p7128
I7138
sS'AlmbdQyp_0'
p7129
I7139
sS'tafAhum_1'
p7130
I7140
sS'Ean_1'
p7131
I7141
sS'kAhin_1'
p7132
I4257
sS'AlAQtlAf_0'
p7133
I7143
sS'muzAwalap_1'
p7134
I7144
sS'tkcf_0'
p7135
I7145
sS'Mxr_0'
p7136
I7146
sS'>awolaY_1'
p7137
I7147
sS'lncwC_0'
p7138
I7148
sS'Daxom_1'
p7139
I7149
sS'lan_1'
p7140
I7150
sS'8_3_0'
p7141
I5002
sS'qiyAdap_2'
p7142
I7151
sS'guDuwn_1'
p7143
I7152
sS'kamA_1'
p7144
I7153
sS'pron'
p7145
I621
sS'suwrap_1'
p7146
I7154
sS'Tuwniy_1'
p7147
I7155
sS'EAnaY_1'
p7148
I7156
sS'Tun~_1'
p7149
I7157
sS'{ixotaraq_1'
p7150
I7158
sS'hudonap_1'
p7151
I7159
sS'xAS~_1'
p7152
I7160
sS'wafor_1'
p7153
I7161
sS'tadobiyr_1'
p7154
I34
sS'Ead~al_1'
p7155
I7163
sS'wHVrt_0'
p7156
I7164
sS'trAn_1'
p7157
I7165
sS'Hasad-u_1'
p7158
I7166
sS'Tay~Ar_1'
p7159
I7167
sS'qrcy_0'
p7160
I2883
sS'junoblAT_1'
p7161
I7168
sS't_1'
p7162
I7169
sS'gaz~ap_1'
p7163
I7170
sS'AlOyAm_0'
p7164
I7171
sS'chrwdy_0'
p7165
I7172
sS'wAlcwAQb_0'
p7166
I7173
sS'EArim_1'
p7167
I7174
sS'riyAD_1'
p7168
I7175
sS'qrACthA_0'
p7169
I7176
sS'71_0'
p7170
I7177
sS'AlmrfO_0'
p7171
I7178
sS'AlActrAky_0'
p7172
I7179
sS'AlfAQt_0'
p7173
I7180
sS'MsyA_0'
p7174
I6906
sS'ribAT_1'
p7175
I7182
sS'{ibon_2'
p7176
I7183
sS'{ibon_1'
p7177
I7184
sS'AlOmAm_0'
p7178
I7185
sS'sir~_1'
p7179
I7186
sS'lltEVyb_0'
p7180
I7187
sS'naDoj_1'
p7181
I7188
sS'musotaEomir_1'
p7182
I7189
sS'naHos_1'
p7183
I7190
sS'IDAfy_0'
p7184
I7191
sS'tAjir_1'
p7185
I7192
sS'had~ad_1'
p7186
I7193
sS'cmAl_0'
p7187
I7194
sS'fAn_2'
p7188
I6030
sS'Haqol_1'
p7189
I7196
sS'{iEotaqal_1'
p7190
I7197
sS'OwlbrAyt_0'
p7191
I7198
sS'mOdbp_0'
p7192
I7199
sS'kalAm_1'
p7193
I6331
sS'muzaw~ar_1'
p7194
I7201
sS'rad~-u_1'
p7195
I7202
sS'juwdap_1'
p7196
I7203
sS'maqoSuwrap_1'
p7197
I7204
sS'tamaHowar_1'
p7198
I7205
sS'llOxyrp_0'
p7199
I7206
sS'muSoTalaH_1'
p7200
I7207
sS'lab~aY_1'
p7201
I7208
sS'AllAQHp_0'
p7202
I7209
sS'muxotalif_1'
p7203
I7210
sS'tAQb_0'
p7204
I7211
sS'wOcd_0'
p7205
I7212
sS'finizuwil~A_1'
p7206
I7213
sS'maEohad_1'
p7207
I7214
sS'AlmcrwE_0'
p7208
I7215
sS'rQyshA_0'
p7209
I7216
sS'Easokariy~_2'
p7210
I7217
sS'Easokariy~_1'
p7211
I7218
sS'InsAn_0'
p7212
I7219
sS'lAHiq_2'
p7213
I4725
sS'lAHiq_1'
p7214
I7221
sS'AljzQyp_0'
p7215
I7222
sS'OrjE_0'
p7216
I7223
sS'AlmVkwr_0'
p7217
I7224
sS'Hajiyj_1'
p7218
I7225
sS'muwsiyqiy~_1'
p7219
I7226
sS'wAzdrAC_0'
p7220
I7227
sS'taxaw~af_1'
p7221
I7228
sS'Hasom_1'
p7222
I4786
sS'xATif_1'
p7223
I7230
sS'muEoZam_1'
p7224
I6973
sS'{isotaqobal_1'
p7225
I7231
sS'tadoriyjiy~_1'
p7226
I6940
sS'AljAQzp_0'
p7227
I7232
sS'Dif~ap_2'
p7228
I7233
sS'Sufayor_1'
p7229
I7234
sS'tahowiyap_1'
p7230
I7235
sS'mufotiy_1'
p7231
I7236
sS'buwsoniy~_1'
p7232
I7237
sS'valoj_1'
p7233
I7238
sS'Oblg_0'
p7234
I7239
sS'cAhq_0'
p7235
I7240
sS'HusAm_1'
p7236
I7241
sS'{iHotifAZ_1'
p7237
I7242
sS'daEArap_1'
p7238
I7243
sS'{inodifAE_1'
p7239
I7244
sS'wizAriy~_1'
p7240
I7681
sS'muDal~il_1'
p7241
I7245
sS'muEotamad_1'
p7242
I7246
sS"mA'_1"
p7243
I7046
sS'ltnfyV_0'
p7244
I7247
sS'OnwAE_0'
p7245
I551
sS'mawoqiE_1'
p7246
I7249
sS'naruwjiy~_1'
p7247
I7251
sS'Habiyb_1'
p7248
I7252
sS'gayomap_1'
p7249
I7253
sS'tcrft_0'
p7250
I7254
sS'IblAg_0'
p7251
I7255
sS'{isotarAH_1'
p7252
I7256
sS'IElAn_0'
p7253
I7257
sS'nazofiy~_1'
p7254
I7258
sS'ltlAmyV_0'
p7255
I7259
sS'fawoDaY_1'
p7256
I7260
sS'Ontm_0'
p7257
I7261
sS'muhim~ap_1'
p7258
I7262
sS'hAdQp_0'
p7259
I5003
sS'AlIlzAmyp_0'
p7260
I5010
sS'dayoliy_1'
p7261
I7265
sS'1_0'
p7262
I6290
sS'Alcmsyp_0'
p7263
I7266
sS'stnfV_0'
p7264
I7267
sS'>aZal~_1'
p7265
I7268
sS'maEomaEap_1'
p7266
I7269
sS'saHaq-a_1'
p7267
I5058
sS'llAjQyn_0'
p7268
I5067
sS'taEoziyz_1'
p7269
I7272
sS'taEoziyz_2'
p7270
I7273
sS'wAlIsmAEyly_0'
p7271
I7274
sS'miloyAr_1'
p7272
I7275
sS'lIqAmp_0'
p7273
I7276
sS'naS~-u_1'
p7274
I7277
sS'wAlOdbyp_0'
p7275
I7278
sS'Saf~aq_1'
p7276
I7279
sS'lIdArp_0'
p7277
I7280
sS'OSyb_0'
p7278
I7281
sS'AlIdArp_0'
p7279
I7282
sS'tAriyxiy~_1'
p7280
I7283
sS'yumonaY_1'
p7281
I7284
sS'OEdt_0'
p7282
I7285
sS'HuSuwl_1'
p7283
I7286
sS'2_1_0'
p7284
I1003
sS'>aDAf_1'
p7285
I7287
sS'wilAyap_1'
p7286
I7288
sS'AstQnAf_0'
p7287
I7289
sS'barolamAn_1'
p7288
I7636
sS'AlIbAdp_0'
p7289
I7291
sS'wjAC_0'
p7290
I7292
sS'bVlk_0'
p7291
I7293
sS'wmsAC_0'
p7292
I7294
sS'muxad~ar_1'
p7293
I7295
sS'AlmxtbQyn_0'
p7294
I7296
sS'Talab_1'
p7295
I7297
sS'Talab_2'
p7296
I7298
sS'OwkrAnyA_0'
p7297
I7299
sS'vaworap_2'
p7298
I7300
sS'mAd~iy~_1'
p7299
I7301
sS'vaworap_1'
p7300
I7302
sS'mudiyr_1'
p7301
I7303
sS'2_9_0'
p7302
I6300
sS'Eilomiy~_1'
p7303
I7304
sS'tOyyd_0'
p7304
I7305
sS'zayodAn_1'
p7305
I7306
sS'bal_1'
p7306
I6820
sS'AlIsrAQylyyn_0'
p7307
I5638
sS'AldwAC_0'
p7308
I7308
sS'kul~iy~ap_1'
p7309
I7309
sS'kIbryAty_0'
p7310
I7310
sS'lIlgAC_0'
p7311
I7311
sS'mutanaw~iE_1'
p7312
I7312
sS'mufotaEal_1'
p7313
I7313
sS'nuwrofuwlk_1'
p7314
I7314
sS'tOyydhm_0'
p7315
I7315
sS'AlswdAC_0'
p7316
I7316
sS'xinAq_1'
p7317
I5358
sS'fAkihap_1'
p7318
I7318
sS'OHdAv_0'
p7319
I5381
sS'{inobaraY_1'
p7320
I7320
sS'bAdEAC_0'
p7321
I7321
sS'lcWwn_0'
p7322
I7323
sS'mut~aHid_1'
p7323
I7324
sS'EbQA_0'
p7324
I7325
sS'jumoEap_1'
p7325
I7326
sS'buxAriy~_2'
p7326
I7327
sS'jub~ap_1'
p7327
I5416
sS'OSAb_0'
p7328
I7329
sS'270_0'
p7329
I7330
sS'wOcrk_0'
p7330
I7331
sS'AlOElY_0'
p7331
I7332
sS'wInjAz_0'
p7332
I7333
sS'huwayodiy~_1'
p7333
I7334
sS'AlOwkrAny_0'
p7334
I7335
sS'malomuws_1'
p7335
I5466
sS'muSaw~ir_1'
p7336
I7337
sS'lIjrAC_0'
p7337
I5484
sS'maxAfap_1'
p7338
I7339
sS'qawomiy~_1'
p7339
I7340
sS'qawomiy~_2'
p7340
I7341
sS'janAH_1'
p7341
I7342
sS'tamoviyliy~_1'
p7342
I7343
sS'lybyrytc_0'
p7343
I7344
sS'ObHAv_0'
p7344
I7345
sS'briyTAniyA_1'
p7345
I7346
sS'AlItnyp_0'
p7346
I7347
sS'>aqal~_1'
p7347
I7348
sS'mafotuwn_1'
p7348
I7349
sS'bOnny_0'
p7349
I7350
sS'dibluwmAsiy~_2'
p7350
I7351
sS'tanak~ur_1'
p7351
I5609
sS'xATir_1'
p7352
I7353
sS'fSAQl_0'
p7353
I7354
sS'mstcfyAt_0'
p7354
I5622
sS'wbnAC_0'
p7355
I7356
sS'nAdiy_1'
p7356
I7357
sS'wAlOnZmp_0'
p7357
I7358
sS'munaZ~am_1'
p7358
I7359
sS'qalob_1'
p7359
I3970
sS'AlIVAEp_0'
p7360
I2081
sS'AlrwAQy_0'
p7361
I1634
sS'EAlaj_1'
p7362
I7362
sS'ckry_0'
p7363
I7363
sS'bav~-u_1'
p7364
I7364
sS'sAq_1'
p7365
I7365
sS'jAmiE_1'
p7366
I5676
sS'munASir_1'
p7367
I7367
sS'wtnqV_0'
p7368
I7368
sS'falakiy~_1'
p7369
I7369
sS'Taqos_1'
p7370
I7370
sS'muhodaY_1'
p7371
I5843
sS'wADiH_1'
p7372
I7372
sS'mux~_1'
p7373
I7373
sS'bikor_1'
p7374
I7374
sS'wIyrAn_0'
p7375
I7375
sS'maboEuwv_1'
p7376
I7376
sS'takoliyf_1'
p7377
I7377
sS'takoliyf_2'
p7378
I7378
sS'wAlnAcTyn_0'
p7379
I7379
sS'HAr~_1'
p7380
I7380
sS'Okbr_0'
p7381
I7381
sS'jasiym_1'
p7382
I7382
sS'{ifotaraq_1'
p7383
I7383
sS'AlgdAC_0'
p7384
I7384
sS'TarAbulus_1'
p7385
I7385
sS'AlOsAsy_0'
p7386
I7386
sS'Eakos_1'
p7387
I5800
sS'AlwHcyp_0'
p7388
I5821
sS'AlOvAv_0'
p7389
I7389
sS'muSAdar_1'
p7390
I7390
sS'waraq_1'
p7391
I7391
sS'AlmjVwb_0'
p7392
I7392
sS'{iEotiqAd_1'
p7393
I7393
sS'barakap_1'
p7394
I7394
sS'rWsAC_0'
p7395
I7395
sS'siwaY_2'
p7396
I7396
sS'baEav-a_1'
p7397
I7397
sS'wAlOcd_0'
p7398
I7398
sS'tclsy_0'
p7399
I4544
sS'vaqiyl_1'
p7400
I5873
sS'tadax~al_1'
p7401
I7401
sS'basoT_1'
p7402
I7402
sS'Eawodap_1'
p7403
I7403
sS'AlcmAly_0'
p7404
I7404
sS'fusoHap_1'
p7405
I7405
sS'cylwtw_0'
p7406
I7406
sS'tWwl_0'
p7407
I7407
sS'kAn_1'
p7408
I7408
sS'majolis_1'
p7409
I7409
sS'crykAn_0'
p7410
I7410
sS'Talab-u_1'
p7411
I7411
sS'mAliyziy~_1'
p7412
I7412
sS'Oqyl_0'
p7413
I7413
sS'nuxAE_1'
p7414
I7414
sS'fQp_0'
p7415
I7415
sS'diymuwqrATiy~_1'
p7416
I6218
sS'nAnosiy_1'
p7417
I7417
sS'xAmis_1'
p7418
I6992
sS'mujotamiE_1'
p7419
I7418
sS'qamoE_1'
p7420
I6059
sS'OdlY_0'
p7421
I7420
sS'fInhA_0'
p7422
I7421
sS'lAriyuwnodA_1'
p7423
I7422
sS'fycr_0'
p7424
I7423
sS'rayovamA_1'
p7425
I7424
sS'AlvnAQyp_0'
p7426
I7425
sS'EiyAdap_1'
p7427
I7426
sS'lIywAQh_0'
p7428
I6096
sS'dAQmp_0'
p7429
I7428
sS'bAriys_1'
p7430
I7429
sS'SuwmAl_1'
p7431
I7430
sS'mArcy_0'
p7432
I7431
sS'Eubuw~ap_1'
p7433
I7432
sS'ziyjap_1'
p7434
I7433
sS'OrDyp_0'
p7435
I7434
sS'taHokiym_1'
p7436
I7435
sS'bIElAn_0'
p7437
I6133
sS'ycEr_0'
p7438
I2524
sS'kAziynuw_1'
p7439
I6142
sS'DwC_0'
p7440
I7439
sS'nisobap_1'
p7441
I7440
sS'kavAfap_1'
p7442
I7441
sS'wychd_0'
p7443
I6155
sS'HAmid_1'
p7444
I7443
sS'ytOhl_0'
p7445
I7445
sS'AlmylycyA_0'
p7446
I6189
sS'EAQlAt_0'
p7447
I7447
sS'mutafah~im_1'
p7448
I7448
sS'gul~_1'
p7449
I7449
sS'kiniysit_1'
p7450
I7450
sS'mWssAt_0'
p7451
I6224
sS'daxol_1'
p7452
I7452
sS'r_1'
p7453
I6234
sS'llIElAn_0'
p7454
I7454
sS'taqoyiym_1'
p7455
I7455
sS'IrsAl_0'
p7456
I7456
sS'hAmc_0'
p7457
I7457
sS'ziyAl_1'
p7458
I6287
sS'wObAHwA_0'
p7459
I7459
sS'OEmAlhm_0'
p7460
I7460
sS'mujad~ad_1'
p7461
I4927
sS'tbcr_0'
p7462
I7462
sS'1970_0'
p7463
I7463
sS'tamoyiyz_1'
p7464
I7464
sS'juwroj_1'
p7465
I6335
sS'62_0'
p7466
I7466
sS'Alcq_0'
p7467
I7467
sS'Hal~aq_1'
p7468
I7468
sS'AllqAC_0'
p7469
I7469
sS'maEoruwD_1'
p7470
I7470
sS'wmWssAtnA_0'
p7471
I7471
sS'{isotaEAd_1'
p7472
I6221
sS'wdnkTAc_0'
p7473
I7473
sS'IysAf_0'
p7474
I7474
sS'zirAEiy~_1'
p7475
I7475
sS'tiligrAf_2'
p7476
I7476
sS'wOjnbyp_0'
p7477
I7477
sS'kabot_1'
p7478
I7478
sS'HadA-u_1'
p7479
I6400
sS'AlcEwb_0'
p7480
I7480
sS'wIzAC_0'
p7481
I7481
sS'InsAnyA_0'
p7482
I7482
sS'fiyliyb~iyn_1'
p7483
I7483
sS'wAlfSAQl_0'
p7484
I7484
sS'farodiy~_1'
p7485
I7485
sS'InqAV_0'
p7486
I7486
sS'{ivonAni_1'
p7487
I7487
sS'muqAwiluwn_1'
p7488
I7488
sS'raSASap_1'
p7489
I7489
sS'rcyd_0'
p7490
I7490
sS'HaD~_1'
p7491
I7491
sS'nhAQyAt_0'
p7492
I7492
sS'>agolaq_1'
p7493
I6379
sS'takar~ar_1'
p7494
I7494
sS'miykAyil_1'
p7495
I6500
sS'xsAQr_0'
p7496
I7496
sS'TAlib_1'
p7497
I7497
sS'TAlib_2'
p7498
I7498
sS'AlrQAsyp_0'
p7499
I7499
sS'IjlAChm_0'
p7500
I1059
sS'ISdAr_0'
p7501
I7501
sS'xaliyj_1'
p7502
I7502
sS'xaliyj_2'
p7503
I7503
sS'llIHSACAt_0'
p7504
I7504
sS'crT_0'
p7505
I7505
sS'AlOchr_0'
p7506
I7506
sS'daEam-a_1'
p7507
I7507
sS'taxal~iy_1'
p7508
I7508
sS'Mry_0'
p7509
I7509
sS'kitAb_1'
p7510
I7510
sS'{inotahak_1'
p7511
I7511
sS'OnA_0'
p7512
I7512
sS'Saboriy_1'
p7513
I7513
sS'hAwiy_1'
p7514
I7514
sS'mukaE~ab_1'
p7515
I7515
sS'mawoDuwEiy~_1'
p7516
I7516
sS'AltOvr_0'
p7517
I7517
sS'IETAC_0'
p7518
I7518
sS'zAnap_1'
p7519
I7519
sS'AlcAmlp_0'
p7520
I7520
sS'EAwad_1'
p7521
I6638
sS'tagay~ur_1'
p7522
I7522
sS'Daruwrap_1'
p7523
I7523
sS'maSonaE_1'
p7524
I7524
sS'wOqrAS_0'
p7525
I7525
sS'>aqonaE_1'
p7526
I3152
sS'Hum~aY_1'
p7527
I7526
sS'wOmAm_0'
p7528
I7527
sS'AlOmyrAl_0'
p7529
I7528
sS'tagoTiyap_1'
p7530
I7529
sS'jabaliy~_1'
p7531
I7530
sS'waram_1'
p7532
I7531
sS'wlOnh_0'
p7533
I6699
sS'nahab-ua_1'
p7534
I7533
sS'wInzAl_0'
p7535
I7534
sS'sifArap_1'
p7536
I7535
sS'SinAEap_1'
p7537
I7536
sS'tanodiyd_1'
p7538
I7537
sS'1982_0'
p7539
I7538
sS'chrp_0'
p7540
I7539
sS'llmWtmr_0'
p7541
I7540
sS'wIHAlthm_0'
p7542
I7541
sS'Onqrp_0'
p7543
I7542
sS'chryn_0'
p7544
I7543
sS'mutaTal~ib_1'
p7545
I7544
sS'muwaq~at_1'
p7546
I7545
sS'rafiyE_1'
p7547
I7546
sS'5000_0'
p7548
I7547
sS'jAsim_1'
p7549
I7548
sS'qitAl_1'
p7550
I7549
sS'{ijotimAE_1'
p7551
I7550
sS'rajaE-i_1'
p7552
I7551
sS'tawal~aY_1'
p7553
I7552
sS'rasomalap_1'
p7554
I7553
sS'tamAsuk_1'
p7555
I7554
sS'maTolab_1'
p7556
I6812
sS'Odxl_0'
p7557
I7556
sS'maHaT~ap_1'
p7558
I7680
sS'{isotabaq_1'
p7559
I7558
sS'muxiyl_1'
p7560
I7559
sS'marowAn_1'
p7561
I7560
sS'Okrm_0'
p7562
I7561
sS'AlOkbr_0'
p7563
I7562
sS'TaEAm_1'
p7564
I7563
sS'llOSwAt_0'
p7565
I7564
sS'SaHiyfap_1'
p7566
I7565
sS'Omyr_0'
p7567
I5735
sS'AlOwqAt_0'
p7568
I7566
sS'muHADarap_1'
p7569
I7567
sS'balobalap_1'
p7570
I7568
sS'AlIElAmyp_0'
p7571
I7569
sS'AlOrmyny_0'
p7572
I7570
sS'wOmyrkyp_0'
p7573
I7571
sS'mutaZAhir_1'
p7574
I7572
sS'OElnt_0'
p7575
I7573
sS'HAfap_1'
p7576
I7574
sS'xawof_1'
p7577
I7575
sS'{isotiyTAniy~_1'
p7578
I7576
sS'liyrap_1'
p7579
I7577
sS'part_verb'
p7580
I1114
sS'giyAb_1'
p7581
I4554
sS'musotaHiyl_1'
p7582
I7579
sS'jamor_1'
p7583
I7580
sS'AlOgnyAt_0'
p7584
I7581
sS'rOsh_0'
p7585
I7582
sS'juwziyf_1'
p7586
I7583
sS'wOms_0'
p7587
I3291
sS'rAmuwn_1'
p7588
I6981
sS'qA}id_1'
p7589
I7586
sS'DaHik-a_1'
p7590
I7587
sS'gariq-a_1'
p7591
I7588
sS'qador_1'
p7592
I7589
sS'vulAviy~_2'
p7593
I7590
sS'lcn_0'
p7594
I1403
sS'OrbEyn_0'
p7595
I7593
sS'rOshA_0'
p7596
I7594
sS'AlcAqp_0'
p7597
I7595
sS'lybrfyl_1'
p7598
I7077
sS'107_0'
p7599
I7085
sS'0.18_0'
p7600
I7598
sS'wOhl_0'
p7601
I7599
sS'18053_0'
p7602
I6399
sS'badiyl_1'
p7603
I7600
sS'mazobalap_1'
p7604
I4699
sS'musaj~il_1'
p7605
I7602
sS'naS~_1'
p7606
I7603
sS'baEod_1'
p7607
I7604
sS'HAj~_2'
p7608
I7605
sS'HAj~_3'
p7609
I7606
sS'ycglhA_0'
p7610
I7607
sS'AlOdby_0'
p7611
I7608
sS'Sahoyuwniy~_1'
p7612
I7610
sS'qay~im_1'
p7613
I7611
sS'>adAr_1'
p7614
I7612
sS'wijAhiy~_1'
p7615
I7613
sS'EaroDiy~_1'
p7616
I7614
sS'AlIvr_0'
p7617
I7615
sS'AlOxlAqyAt_0'
p7618
I7616
sS'Omp_0'
p7619
I7617
sS'AlOHzAb_0'
p7620
I7618
sS'AlcxSyAt_0'
p7621
I7619
sS'lsWAl_0'
p7622
I5110
sS'lIxrAj_0'
p7623
I7620
sS'raqamiy~_1'
p7624
I7621
sS'AlmcAhdyn_0'
p7625
I7622
sS'ramoz_1'
p7626
I7623
sS'AlOmny_0'
p7627
I7624
sS'bAbAnodriyuw_1'
p7628
I7625
sS'xAlaf_1'
p7629
I7626
sS'IjAzp_0'
p7630
I7627
sS'yamaniy~_1'
p7631
I7628
sS'Had~_1'
p7632
I7629
sS'mAhir_1'
p7633
I7630
sS'IsTnbwl_0'
p7634
I7631
sS'206_0'
p7635
I7632
sS'lmWAsAp_0'
p7636
I7633
sS'tawoqiyt_1'
p7637
I7634
sS'Eaqod_1'
p7638
I7635
sS'Eaqod_2'
p7639
I7290
sS'410_0'
p7640
I7637
sS'taEal~uq_1'
p7641
I7638
sS'buwiyng_1'
p7642
I7639
sS'Albcyr_0'
p7643
I7640
sS'lAhAy_1'
p7644
I7641
sS'rafiyq_1'
p7645
I7642
sS'mudam~irap_1'
p7646
I7643
sS'fikoriy~_1'
p7647
I7322
sS'duxuwl_1'
p7648
I7645
sS'mihonap_1'
p7649
I7646
sS'taZAhar_1'
p7650
I7647
sS'Eaqol_1'
p7651
I7648
sS'IHrAz_0'
p7652
I7649
sS'Ordn_0'
p7653
I7650
sS'daraY-i_1'
p7654
I7651
sS'kAronAtAkA_1'
p7655
I7652
sS'HaDariy~_1'
p7656
I7653
sS'ObHAvy_0'
p7657
I7654
sS'wAlOwstrAly_0'
p7658
I7655
sS'mylycyAt_0'
p7659
I7656
sS'kOysy_0'
p7660
I6798
sS'l`kin~a_1'
p7661
I7657
sS'Daniy~ap_1'
p7662
I7658
sS'qAEidap_2'
p7663
I7659
sS'qAEidap_1'
p7664
I7660
sS'xay~AT_2'
p7665
I7661
sS'ycklwn_0'
p7666
I7662
sS'{irotakab_1'
p7667
I7663
sS'muEAmalap_1'
p7668
I7664
sS'mawohibap_1'
p7669
I7665
sS'maEobar_1'
p7670
I7666
sS'AlOrDy_0'
p7671
I7667
sS'muHam~ad_1'
p7672
I7668
sS'AlmOsAp_0'
p7673
I7669
sS'ImkAnAth_0'
p7674
I7670
sS'SArim_1'
p7675
I7671
sS'say~idap_1'
p7676
I7672
sS'tagoliyb_1'
p7677
I7673
sS'Ow_0'
p7678
I843
sS'tckl_0'
p7679
I7675
sS'rutobap_1'
p7680
I7676
sS'>adomaY_1'
p7681
I7677
sS'muliH~_1'
p7682
I7678
sS'>adorak_1'
p7683
I7679
sS'dAy_2'
p7684
I7557
sS'Almncq_0'
p7685
I5544
sS'wAlOjrAm_0'
p7686
I7682
sS'Tafiyf_1'
p7687
I7683
sS'Hat~aY_1'
p7688
I7684
sS'vamAniy_1'
p7689
I7685
sS'9741.41_0'
p7690
I7686
sS'tal~_1'
p7691
I7687
sS'tal~_2'
p7692
I7688
sS'tajas~us_1'
p7693
I7689
sS'Euzolap_1'
p7694
I7690
sS'AlIqlymy_0'
p7695
I7691
sS'OxTO_0'
p7696
I7692
sS'bfylcyftr_0'
p7697
I7693
sS'cAbh_0'
p7698
I7694
sS'maEonaY_1'
p7699
I7695
ssS'classifier'
p7700
ccopy_reg
_reconstructor
p7701
(csklearn.svm.classes
LinearSVC
p7702
c__builtin__
object
p7703
NtRp7704
(dp7705
S'loss'
p7706
S'l2'
p7707
sS'C'
F1
sS'intercept_'
p7708
cnumpy.core.multiarray
_reconstruct
p7709
(cnumpy
ndarray
p7710
(I0
tS'b'
tRp7711
(I1
(I1
tcnumpy
dtype
p7712
(S'f8'
I0
I1
tRp7713
(I3
S'<'
NNNI-1
I-1
I0
tbI00
S'\xc8.\xca\x8b_\t\xa5\xbf'
tbsS'verbose'
p7714
I0
sS'dual'
p7715
I01
sS'fit_intercept'
p7716
I01
sS'class_weight_'
p7717
g7709
(g7710
(I0
tS'b'
tRp7718
(I1
(I2
tg7713
I00
S'\x00\x00\x00\x00\x00\x00\xf0?\x00\x00\x00\x00\x00\x00\xf0?'
tbsS'penalty'
p7719
g7707
sS'multi_class'
p7720
S'ovr'
p7721
sS'random_state'
p7722
NsS'raw_coef_'
p7723
g7709
(g7710
(I0
tS'b'
tRp7724
(I1
(I1
I12
tg7713
I01
S'\x0c\x83R\xe7\xe7,<?$K%\xdd2\x187?"\x8ebp\x8f\x11\x91\xbf\xc2\x81x\x9a\x15\x07\x80? $;\xe5\x16<\x9c\xbf\xcc\xaf\x85\xa1\xc7nO\xbf\xb6\x06\xa0\xb8u\xcb\x9b?\xce\xc2\x19\x07\xf0\x9b\xa6?\xc6\xa4\x1dU\xe1\x19\x8d?\r\xa0\xd8\xbae\x9b\x80?\xe2=\xb0,\xf2\\\xc4\xbf\xc8.\xca\x8b_\t\xa5\xbf'
tbsS'_enc'
p7725
g7701
(csklearn.preprocessing
LabelEncoder
p7726
g7703
NtRp7727
(dp7728
S'classes_'
p7729
g7709
(g7710
(I0
tS'b'
tRp7730
(I1
(I2
tg7712
(S'i8'
I0
I1
tRp7731
(I3
S'<'
NNNI-1
I-1
I0
tbI00
S'\x00\x00\x00\x00\x00\x00\x00\x00\x01\x00\x00\x00\x00\x00\x00\x00'
tbsbsS'tol'
p7732
F0.0001
sS'coef_'
p7733
g7709
(g7710
(I0
tS'b'
tRp7734
(I1
(I1
I11
tg7713
I01
S'\x0c\x83R\xe7\xe7,<?$K%\xdd2\x187?"\x8ebp\x8f\x11\x91\xbf\xc2\x81x\x9a\x15\x07\x80? $;\xe5\x16<\x9c\xbf\xcc\xaf\x85\xa1\xc7nO\xbf\xb6\x06\xa0\xb8u\xcb\x9b?\xce\xc2\x19\x07\xf0\x9b\xa6?\xc6\xa4\x1dU\xe1\x19\x8d?\r\xa0\xd8\xbae\x9b\x80?\xe2=\xb0,\xf2\\\xc4\xbf'
tbsS'class_weight'
p7735
NsS'intercept_scaling'
p7736
I1
sbs.